

Microchip MPLAB XC8 Assembler V3.00 build 20241204225717 
                                                                                               Tue Jul 01 17:15:26 2025

Microchip MPLAB XC8 C Compiler v3.00 (Free license) build 20241204225717 Og1 
     1                           	processor	16F877A
     2                           	pagewidth 120
     3                           	opt	flic
     4                           	psect	idataBANK1,global,class=CODE,space=0,delta=2,noexec
     5                           	psect	strings,global,class=STRING,space=0,delta=2,noexec
     6                           	psect	stringtext,global,reloc=256,class=STRCODE,space=0,delta=2,noexec
     7                           	psect	cinit,global,class=CODE,space=0,merge=1,delta=2
     8                           	psect	bssCOMMON,global,class=COMMON,space=1,delta=1,noexec
     9                           	psect	bssBANK0,global,class=BANK0,space=1,delta=1,noexec
    10                           	psect	bssBANK1,global,class=BANK1,space=1,delta=1,noexec
    11                           	psect	dataBANK1,global,class=BANK1,space=1,delta=1,noexec
    12                           	psect	inittext,global,class=CODE,space=0,delta=2
    13                           	psect	cstackBANK1,global,class=BANK1,space=1,delta=1,noexec
    14                           	psect	cstackCOMMON,global,class=COMMON,space=1,delta=1,noexec
    15                           	psect	cstackBANK0,global,class=BANK0,space=1,delta=1,noexec
    16                           	psect	maintext,global,class=CODE,space=0,split=1,delta=2
    17                           	psect	text1,local,class=CODE,space=0,merge=1,delta=2
    18                           	psect	text2,local,class=CODE,space=0,merge=1,delta=2
    19                           	psect	text3,local,class=CODE,space=0,merge=1,delta=2
    20                           	psect	text4,local,class=CODE,space=0,merge=1,delta=2
    21                           	psect	text5,local,class=CODE,space=0,merge=1,delta=2
    22                           	psect	text6,local,class=CODE,space=0,merge=1,delta=2
    23                           	psect	text7,local,class=CODE,space=0,merge=1,delta=2,group=1
    24                           	psect	text8,local,class=CODE,space=0,merge=1,delta=2,group=1
    25                           	psect	text9,local,class=CODE,space=0,merge=1,delta=2,group=1
    26                           	psect	text10,local,class=CODE,space=0,merge=1,delta=2,group=1
    27                           	psect	text11,local,class=CODE,space=0,merge=1,delta=2,group=1
    28                           	psect	text12,local,class=CODE,space=0,merge=1,delta=2,group=1
    29                           	psect	text13,local,class=CODE,space=0,merge=1,delta=2,group=1
    30                           	psect	text14,local,class=CODE,space=0,merge=1,delta=2,group=1
    31                           	psect	text15,local,class=CODE,space=0,merge=1,delta=2,group=1
    32                           	psect	text16,local,class=CODE,space=0,merge=1,delta=2,group=1
    33                           	psect	text17,local,class=CODE,space=0,merge=1,delta=2
    34                           	psect	text18,local,class=CODE,space=0,merge=1,delta=2
    35                           	psect	text19,local,class=CODE,space=0,merge=1,delta=2
    36                           	psect	text20,local,class=CODE,space=0,merge=1,delta=2
    37                           	psect	text21,local,class=CODE,space=0,merge=1,delta=2
    38                           	psect	text22,local,class=CODE,space=0,merge=1,delta=2
    39                           	psect	text23,local,class=CODE,space=0,merge=1,delta=2
    40                           	psect	text24,local,class=CODE,space=0,merge=1,delta=2
    41                           	psect	text25,local,class=CODE,space=0,merge=1,delta=2
    42                           	psect	text26,local,class=CODE,space=0,merge=1,delta=2
    43                           	psect	text27,local,class=CODE,space=0,merge=1,delta=2
    44                           	psect	intentry,global,class=CODE,space=0,delta=2
    45                           	psect	config,global,abs,ovrld,class=CONFIG,space=4,delta=2,noexec
    46                           	dabs	1,0x7E,2
    47     0000                     
    48                           ; Generated 12/10/2023 GMT
    49                           ; 
    50                           ; Copyright © 2023, Microchip Technology Inc. and its subsidiaries ("Microchip")
    51                           ; All rights reserved.
    52                           ; 
    53                           ; This software is developed by Microchip Technology Inc. and its subsidiaries ("Microch
      +                          ip").
    54                           ; 
    55                           ; Redistribution and use in source and binary forms, with or without modification, are
    56                           ; permitted provided that the following conditions are met:
    57                           ; 
    58                           ;     1. Redistributions of source code must retain the above copyright notice, this lis
      +                          t of
    59                           ;        conditions and the following disclaimer.
    60                           ; 
    61                           ;     2. Redistributions in binary form must reproduce the above copyright notice, this 
      +                          list
    62                           ;        of conditions and the following disclaimer in the documentation and/or other
    63                           ;        materials provided with the distribution. Publication is not required when
    64                           ;        this file is used in an embedded application.
    65                           ; 
    66                           ;     3. Microchip's name may not be used to endorse or promote products derived from th
      +                          is
    67                           ;        software without specific prior written permission.
    68                           ; 
    69                           ; THIS SOFTWARE IS PROVIDED BY MICROCHIP "AS IS" AND ANY EXPRESS OR IMPLIED WARRANTIES,
    70                           ; INCLUDING, BUT NOT LIMITED TO, THE IMPLIED WARRANTIES OF MERCHANTABILITY AND FITNESS F
      +                          OR
    71                           ; PURPOSE ARE DISCLAIMED.  IN NO EVENT SHALL MICROCHIP BE LIABLE FOR ANY DIRECT, INDIREC
      +                          T,
    72                           ; INCIDENTAL, SPECIAL, EXEMPLARY, OR CONSEQUENTIAL DAMAGES (INCLUDING BUT NOT LIMITED TO
    73                           ; PROCUREMENT OF SUBSTITUTE GOODS OR SERVICES; LOSS OF USE, DATA OR PROFITS; OR BUSINESS
    74                           ; INTERRUPTION) HOWSOEVER CAUSED AND ON ANY THEORY OF LIABILITY, WHETHER IN CONTRACT, ST
      +                          RICT
    75                           ; LIABILITY, OR TORT (INCLUDING NEGLIGENCE OR OTHERWISE) ARISING IN ANY WAY OUT OF THE U
      +                          SE OF
    76                           ; THIS SOFTWARE, EVEN IF ADVISED OF THE POSSIBILITY OF SUCH DAMAGE.
    77                           ; 
    78                           ; 
    79                           ; Code-generator required, PIC16F877A Definitions
    80                           ; 
    81                           ; SFR Addresses
    82     0004                     fsr             equ	4
    83     0004                     fsr0            equ	4
    84     0000                     indf            equ	0
    85     0000                     indf0           equ	0
    86     0002                     pc              equ	2
    87     0002                     pcl             equ	2
    88     000A                     pclath          equ	10
    89     0003                     status          equ	3
    90     0000                     INDF            equ	0	;# 
    91     0001                     TMR0            equ	1	;# 
    92     0002                     PCL             equ	2	;# 
    93     0003                     STATUS          equ	3	;# 
    94     0004                     FSR             equ	4	;# 
    95     0005                     PORTA           equ	5	;# 
    96     0006                     PORTB           equ	6	;# 
    97     0007                     PORTC           equ	7	;# 
    98     0008                     PORTD           equ	8	;# 
    99     0009                     PORTE           equ	9	;# 
   100     000A                     PCLATH          equ	10	;# 
   101     000B                     INTCON          equ	11	;# 
   102     000C                     PIR1            equ	12	;# 
   103     000D                     PIR2            equ	13	;# 
   104     000E                     TMR1            equ	14	;# 
   105     000E                     TMR1L           equ	14	;# 
   106     000F                     TMR1H           equ	15	;# 
   107     0010                     T1CON           equ	16	;# 
   108     0011                     TMR2            equ	17	;# 
   109     0012                     T2CON           equ	18	;# 
   110     0013                     SSPBUF          equ	19	;# 
   111     0014                     SSPCON          equ	20	;# 
   112     0015                     CCPR1           equ	21	;# 
   113     0015                     CCPR1L          equ	21	;# 
   114     0016                     CCPR1H          equ	22	;# 
   115     0017                     CCP1CON         equ	23	;# 
   116     0018                     RCSTA           equ	24	;# 
   117     0019                     TXREG           equ	25	;# 
   118     001A                     RCREG           equ	26	;# 
   119     001B                     CCPR2           equ	27	;# 
   120     001B                     CCPR2L          equ	27	;# 
   121     001C                     CCPR2H          equ	28	;# 
   122     001D                     CCP2CON         equ	29	;# 
   123     001E                     ADRESH          equ	30	;# 
   124     001F                     ADCON0          equ	31	;# 
   125     0081                     OPTION_REG      equ	129	;# 
   126     0085                     TRISA           equ	133	;# 
   127     0086                     TRISB           equ	134	;# 
   128     0087                     TRISC           equ	135	;# 
   129     0088                     TRISD           equ	136	;# 
   130     0089                     TRISE           equ	137	;# 
   131     008C                     PIE1            equ	140	;# 
   132     008D                     PIE2            equ	141	;# 
   133     008E                     PCON            equ	142	;# 
   134     0091                     SSPCON2         equ	145	;# 
   135     0092                     PR2             equ	146	;# 
   136     0093                     SSPADD          equ	147	;# 
   137     0094                     SSPSTAT         equ	148	;# 
   138     0098                     TXSTA           equ	152	;# 
   139     0099                     SPBRG           equ	153	;# 
   140     009C                     CMCON           equ	156	;# 
   141     009D                     CVRCON          equ	157	;# 
   142     009E                     ADRESL          equ	158	;# 
   143     009F                     ADCON1          equ	159	;# 
   144     010C                     EEDATA          equ	268	;# 
   145     010D                     EEADR           equ	269	;# 
   146     010E                     EEDATH          equ	270	;# 
   147     010F                     EEADRH          equ	271	;# 
   148     018C                     EECON1          equ	396	;# 
   149     018D                     EECON2          equ	397	;# 
   150     0000                     INDF            equ	0	;# 
   151     0001                     TMR0            equ	1	;# 
   152     0002                     PCL             equ	2	;# 
   153     0003                     STATUS          equ	3	;# 
   154     0004                     FSR             equ	4	;# 
   155     0005                     PORTA           equ	5	;# 
   156     0006                     PORTB           equ	6	;# 
   157     0007                     PORTC           equ	7	;# 
   158     0008                     PORTD           equ	8	;# 
   159     0009                     PORTE           equ	9	;# 
   160     000A                     PCLATH          equ	10	;# 
   161     000B                     INTCON          equ	11	;# 
   162     000C                     PIR1            equ	12	;# 
   163     000D                     PIR2            equ	13	;# 
   164     000E                     TMR1            equ	14	;# 
   165     000E                     TMR1L           equ	14	;# 
   166     000F                     TMR1H           equ	15	;# 
   167     0010                     T1CON           equ	16	;# 
   168     0011                     TMR2            equ	17	;# 
   169     0012                     T2CON           equ	18	;# 
   170     0013                     SSPBUF          equ	19	;# 
   171     0014                     SSPCON          equ	20	;# 
   172     0015                     CCPR1           equ	21	;# 
   173     0015                     CCPR1L          equ	21	;# 
   174     0016                     CCPR1H          equ	22	;# 
   175     0017                     CCP1CON         equ	23	;# 
   176     0018                     RCSTA           equ	24	;# 
   177     0019                     TXREG           equ	25	;# 
   178     001A                     RCREG           equ	26	;# 
   179     001B                     CCPR2           equ	27	;# 
   180     001B                     CCPR2L          equ	27	;# 
   181     001C                     CCPR2H          equ	28	;# 
   182     001D                     CCP2CON         equ	29	;# 
   183     001E                     ADRESH          equ	30	;# 
   184     001F                     ADCON0          equ	31	;# 
   185     0081                     OPTION_REG      equ	129	;# 
   186     0085                     TRISA           equ	133	;# 
   187     0086                     TRISB           equ	134	;# 
   188     0087                     TRISC           equ	135	;# 
   189     0088                     TRISD           equ	136	;# 
   190     0089                     TRISE           equ	137	;# 
   191     008C                     PIE1            equ	140	;# 
   192     008D                     PIE2            equ	141	;# 
   193     008E                     PCON            equ	142	;# 
   194     0091                     SSPCON2         equ	145	;# 
   195     0092                     PR2             equ	146	;# 
   196     0093                     SSPADD          equ	147	;# 
   197     0094                     SSPSTAT         equ	148	;# 
   198     0098                     TXSTA           equ	152	;# 
   199     0099                     SPBRG           equ	153	;# 
   200     009C                     CMCON           equ	156	;# 
   201     009D                     CVRCON          equ	157	;# 
   202     009E                     ADRESL          equ	158	;# 
   203     009F                     ADCON1          equ	159	;# 
   204     010C                     EEDATA          equ	268	;# 
   205     010D                     EEADR           equ	269	;# 
   206     010E                     EEDATH          equ	270	;# 
   207     010F                     EEADRH          equ	271	;# 
   208     018C                     EECON1          equ	396	;# 
   209     018D                     EECON2          equ	397	;# 
   210     0000                     INDF            equ	0	;# 
   211     0001                     TMR0            equ	1	;# 
   212     0002                     PCL             equ	2	;# 
   213     0003                     STATUS          equ	3	;# 
   214     0004                     FSR             equ	4	;# 
   215     0005                     PORTA           equ	5	;# 
   216     0006                     PORTB           equ	6	;# 
   217     0007                     PORTC           equ	7	;# 
   218     0008                     PORTD           equ	8	;# 
   219     0009                     PORTE           equ	9	;# 
   220     000A                     PCLATH          equ	10	;# 
   221     000B                     INTCON          equ	11	;# 
   222     000C                     PIR1            equ	12	;# 
   223     000D                     PIR2            equ	13	;# 
   224     000E                     TMR1            equ	14	;# 
   225     000E                     TMR1L           equ	14	;# 
   226     000F                     TMR1H           equ	15	;# 
   227     0010                     T1CON           equ	16	;# 
   228     0011                     TMR2            equ	17	;# 
   229     0012                     T2CON           equ	18	;# 
   230     0013                     SSPBUF          equ	19	;# 
   231     0014                     SSPCON          equ	20	;# 
   232     0015                     CCPR1           equ	21	;# 
   233     0015                     CCPR1L          equ	21	;# 
   234     0016                     CCPR1H          equ	22	;# 
   235     0017                     CCP1CON         equ	23	;# 
   236     0018                     RCSTA           equ	24	;# 
   237     0019                     TXREG           equ	25	;# 
   238     001A                     RCREG           equ	26	;# 
   239     001B                     CCPR2           equ	27	;# 
   240     001B                     CCPR2L          equ	27	;# 
   241     001C                     CCPR2H          equ	28	;# 
   242     001D                     CCP2CON         equ	29	;# 
   243     001E                     ADRESH          equ	30	;# 
   244     001F                     ADCON0          equ	31	;# 
   245     0081                     OPTION_REG      equ	129	;# 
   246     0085                     TRISA           equ	133	;# 
   247     0086                     TRISB           equ	134	;# 
   248     0087                     TRISC           equ	135	;# 
   249     0088                     TRISD           equ	136	;# 
   250     0089                     TRISE           equ	137	;# 
   251     008C                     PIE1            equ	140	;# 
   252     008D                     PIE2            equ	141	;# 
   253     008E                     PCON            equ	142	;# 
   254     0091                     SSPCON2         equ	145	;# 
   255     0092                     PR2             equ	146	;# 
   256     0093                     SSPADD          equ	147	;# 
   257     0094                     SSPSTAT         equ	148	;# 
   258     0098                     TXSTA           equ	152	;# 
   259     0099                     SPBRG           equ	153	;# 
   260     009C                     CMCON           equ	156	;# 
   261     009D                     CVRCON          equ	157	;# 
   262     009E                     ADRESL          equ	158	;# 
   263     009F                     ADCON1          equ	159	;# 
   264     010C                     EEDATA          equ	268	;# 
   265     010D                     EEADR           equ	269	;# 
   266     010E                     EEDATH          equ	270	;# 
   267     010F                     EEADRH          equ	271	;# 
   268     018C                     EECON1          equ	396	;# 
   269     018D                     EECON2          equ	397	;# 
   270     0000                     INDF            equ	0	;# 
   271     0001                     TMR0            equ	1	;# 
   272     0002                     PCL             equ	2	;# 
   273     0003                     STATUS          equ	3	;# 
   274     0004                     FSR             equ	4	;# 
   275     0005                     PORTA           equ	5	;# 
   276     0006                     PORTB           equ	6	;# 
   277     0007                     PORTC           equ	7	;# 
   278     0008                     PORTD           equ	8	;# 
   279     0009                     PORTE           equ	9	;# 
   280     000A                     PCLATH          equ	10	;# 
   281     000B                     INTCON          equ	11	;# 
   282     000C                     PIR1            equ	12	;# 
   283     000D                     PIR2            equ	13	;# 
   284     000E                     TMR1            equ	14	;# 
   285     000E                     TMR1L           equ	14	;# 
   286     000F                     TMR1H           equ	15	;# 
   287     0010                     T1CON           equ	16	;# 
   288     0011                     TMR2            equ	17	;# 
   289     0012                     T2CON           equ	18	;# 
   290     0013                     SSPBUF          equ	19	;# 
   291     0014                     SSPCON          equ	20	;# 
   292     0015                     CCPR1           equ	21	;# 
   293     0015                     CCPR1L          equ	21	;# 
   294     0016                     CCPR1H          equ	22	;# 
   295     0017                     CCP1CON         equ	23	;# 
   296     0018                     RCSTA           equ	24	;# 
   297     0019                     TXREG           equ	25	;# 
   298     001A                     RCREG           equ	26	;# 
   299     001B                     CCPR2           equ	27	;# 
   300     001B                     CCPR2L          equ	27	;# 
   301     001C                     CCPR2H          equ	28	;# 
   302     001D                     CCP2CON         equ	29	;# 
   303     001E                     ADRESH          equ	30	;# 
   304     001F                     ADCON0          equ	31	;# 
   305     0081                     OPTION_REG      equ	129	;# 
   306     0085                     TRISA           equ	133	;# 
   307     0086                     TRISB           equ	134	;# 
   308     0087                     TRISC           equ	135	;# 
   309     0088                     TRISD           equ	136	;# 
   310     0089                     TRISE           equ	137	;# 
   311     008C                     PIE1            equ	140	;# 
   312     008D                     PIE2            equ	141	;# 
   313     008E                     PCON            equ	142	;# 
   314     0091                     SSPCON2         equ	145	;# 
   315     0092                     PR2             equ	146	;# 
   316     0093                     SSPADD          equ	147	;# 
   317     0094                     SSPSTAT         equ	148	;# 
   318     0098                     TXSTA           equ	152	;# 
   319     0099                     SPBRG           equ	153	;# 
   320     009C                     CMCON           equ	156	;# 
   321     009D                     CVRCON          equ	157	;# 
   322     009E                     ADRESL          equ	158	;# 
   323     009F                     ADCON1          equ	159	;# 
   324     010C                     EEDATA          equ	268	;# 
   325     010D                     EEADR           equ	269	;# 
   326     010E                     EEDATH          equ	270	;# 
   327     010F                     EEADRH          equ	271	;# 
   328     018C                     EECON1          equ	396	;# 
   329     018D                     EECON2          equ	397	;# 
   330     0000                     INDF            equ	0	;# 
   331     0001                     TMR0            equ	1	;# 
   332     0002                     PCL             equ	2	;# 
   333     0003                     STATUS          equ	3	;# 
   334     0004                     FSR             equ	4	;# 
   335     0005                     PORTA           equ	5	;# 
   336     0006                     PORTB           equ	6	;# 
   337     0007                     PORTC           equ	7	;# 
   338     0008                     PORTD           equ	8	;# 
   339     0009                     PORTE           equ	9	;# 
   340     000A                     PCLATH          equ	10	;# 
   341     000B                     INTCON          equ	11	;# 
   342     000C                     PIR1            equ	12	;# 
   343     000D                     PIR2            equ	13	;# 
   344     000E                     TMR1            equ	14	;# 
   345     000E                     TMR1L           equ	14	;# 
   346     000F                     TMR1H           equ	15	;# 
   347     0010                     T1CON           equ	16	;# 
   348     0011                     TMR2            equ	17	;# 
   349     0012                     T2CON           equ	18	;# 
   350     0013                     SSPBUF          equ	19	;# 
   351     0014                     SSPCON          equ	20	;# 
   352     0015                     CCPR1           equ	21	;# 
   353     0015                     CCPR1L          equ	21	;# 
   354     0016                     CCPR1H          equ	22	;# 
   355     0017                     CCP1CON         equ	23	;# 
   356     0018                     RCSTA           equ	24	;# 
   357     0019                     TXREG           equ	25	;# 
   358     001A                     RCREG           equ	26	;# 
   359     001B                     CCPR2           equ	27	;# 
   360     001B                     CCPR2L          equ	27	;# 
   361     001C                     CCPR2H          equ	28	;# 
   362     001D                     CCP2CON         equ	29	;# 
   363     001E                     ADRESH          equ	30	;# 
   364     001F                     ADCON0          equ	31	;# 
   365     0081                     OPTION_REG      equ	129	;# 
   366     0085                     TRISA           equ	133	;# 
   367     0086                     TRISB           equ	134	;# 
   368     0087                     TRISC           equ	135	;# 
   369     0088                     TRISD           equ	136	;# 
   370     0089                     TRISE           equ	137	;# 
   371     008C                     PIE1            equ	140	;# 
   372     008D                     PIE2            equ	141	;# 
   373     008E                     PCON            equ	142	;# 
   374     0091                     SSPCON2         equ	145	;# 
   375     0092                     PR2             equ	146	;# 
   376     0093                     SSPADD          equ	147	;# 
   377     0094                     SSPSTAT         equ	148	;# 
   378     0098                     TXSTA           equ	152	;# 
   379     0099                     SPBRG           equ	153	;# 
   380     009C                     CMCON           equ	156	;# 
   381     009D                     CVRCON          equ	157	;# 
   382     009E                     ADRESL          equ	158	;# 
   383     009F                     ADCON1          equ	159	;# 
   384     010C                     EEDATA          equ	268	;# 
   385     010D                     EEADR           equ	269	;# 
   386     010E                     EEDATH          equ	270	;# 
   387     010F                     EEADRH          equ	271	;# 
   388     018C                     EECON1          equ	396	;# 
   389     018D                     EECON2          equ	397	;# 
   390     0000                     INDF            equ	0	;# 
   391     0001                     TMR0            equ	1	;# 
   392     0002                     PCL             equ	2	;# 
   393     0003                     STATUS          equ	3	;# 
   394     0004                     FSR             equ	4	;# 
   395     0005                     PORTA           equ	5	;# 
   396     0006                     PORTB           equ	6	;# 
   397     0007                     PORTC           equ	7	;# 
   398     0008                     PORTD           equ	8	;# 
   399     0009                     PORTE           equ	9	;# 
   400     000A                     PCLATH          equ	10	;# 
   401     000B                     INTCON          equ	11	;# 
   402     000C                     PIR1            equ	12	;# 
   403     000D                     PIR2            equ	13	;# 
   404     000E                     TMR1            equ	14	;# 
   405     000E                     TMR1L           equ	14	;# 
   406     000F                     TMR1H           equ	15	;# 
   407     0010                     T1CON           equ	16	;# 
   408     0011                     TMR2            equ	17	;# 
   409     0012                     T2CON           equ	18	;# 
   410     0013                     SSPBUF          equ	19	;# 
   411     0014                     SSPCON          equ	20	;# 
   412     0015                     CCPR1           equ	21	;# 
   413     0015                     CCPR1L          equ	21	;# 
   414     0016                     CCPR1H          equ	22	;# 
   415     0017                     CCP1CON         equ	23	;# 
   416     0018                     RCSTA           equ	24	;# 
   417     0019                     TXREG           equ	25	;# 
   418     001A                     RCREG           equ	26	;# 
   419     001B                     CCPR2           equ	27	;# 
   420     001B                     CCPR2L          equ	27	;# 
   421     001C                     CCPR2H          equ	28	;# 
   422     001D                     CCP2CON         equ	29	;# 
   423     001E                     ADRESH          equ	30	;# 
   424     001F                     ADCON0          equ	31	;# 
   425     0081                     OPTION_REG      equ	129	;# 
   426     0085                     TRISA           equ	133	;# 
   427     0086                     TRISB           equ	134	;# 
   428     0087                     TRISC           equ	135	;# 
   429     0088                     TRISD           equ	136	;# 
   430     0089                     TRISE           equ	137	;# 
   431     008C                     PIE1            equ	140	;# 
   432     008D                     PIE2            equ	141	;# 
   433     008E                     PCON            equ	142	;# 
   434     0091                     SSPCON2         equ	145	;# 
   435     0092                     PR2             equ	146	;# 
   436     0093                     SSPADD          equ	147	;# 
   437     0094                     SSPSTAT         equ	148	;# 
   438     0098                     TXSTA           equ	152	;# 
   439     0099                     SPBRG           equ	153	;# 
   440     009C                     CMCON           equ	156	;# 
   441     009D                     CVRCON          equ	157	;# 
   442     009E                     ADRESL          equ	158	;# 
   443     009F                     ADCON1          equ	159	;# 
   444     010C                     EEDATA          equ	268	;# 
   445     010D                     EEADR           equ	269	;# 
   446     010E                     EEDATH          equ	270	;# 
   447     010F                     EEADRH          equ	271	;# 
   448     018C                     EECON1          equ	396	;# 
   449     018D                     EECON2          equ	397	;# 
   450     0000                     INDF            equ	0	;# 
   451     0001                     TMR0            equ	1	;# 
   452     0002                     PCL             equ	2	;# 
   453     0003                     STATUS          equ	3	;# 
   454     0004                     FSR             equ	4	;# 
   455     0005                     PORTA           equ	5	;# 
   456     0006                     PORTB           equ	6	;# 
   457     0007                     PORTC           equ	7	;# 
   458     0008                     PORTD           equ	8	;# 
   459     0009                     PORTE           equ	9	;# 
   460     000A                     PCLATH          equ	10	;# 
   461     000B                     INTCON          equ	11	;# 
   462     000C                     PIR1            equ	12	;# 
   463     000D                     PIR2            equ	13	;# 
   464     000E                     TMR1            equ	14	;# 
   465     000E                     TMR1L           equ	14	;# 
   466     000F                     TMR1H           equ	15	;# 
   467     0010                     T1CON           equ	16	;# 
   468     0011                     TMR2            equ	17	;# 
   469     0012                     T2CON           equ	18	;# 
   470     0013                     SSPBUF          equ	19	;# 
   471     0014                     SSPCON          equ	20	;# 
   472     0015                     CCPR1           equ	21	;# 
   473     0015                     CCPR1L          equ	21	;# 
   474     0016                     CCPR1H          equ	22	;# 
   475     0017                     CCP1CON         equ	23	;# 
   476     0018                     RCSTA           equ	24	;# 
   477     0019                     TXREG           equ	25	;# 
   478     001A                     RCREG           equ	26	;# 
   479     001B                     CCPR2           equ	27	;# 
   480     001B                     CCPR2L          equ	27	;# 
   481     001C                     CCPR2H          equ	28	;# 
   482     001D                     CCP2CON         equ	29	;# 
   483     001E                     ADRESH          equ	30	;# 
   484     001F                     ADCON0          equ	31	;# 
   485     0081                     OPTION_REG      equ	129	;# 
   486     0085                     TRISA           equ	133	;# 
   487     0086                     TRISB           equ	134	;# 
   488     0087                     TRISC           equ	135	;# 
   489     0088                     TRISD           equ	136	;# 
   490     0089                     TRISE           equ	137	;# 
   491     008C                     PIE1            equ	140	;# 
   492     008D                     PIE2            equ	141	;# 
   493     008E                     PCON            equ	142	;# 
   494     0091                     SSPCON2         equ	145	;# 
   495     0092                     PR2             equ	146	;# 
   496     0093                     SSPADD          equ	147	;# 
   497     0094                     SSPSTAT         equ	148	;# 
   498     0098                     TXSTA           equ	152	;# 
   499     0099                     SPBRG           equ	153	;# 
   500     009C                     CMCON           equ	156	;# 
   501     009D                     CVRCON          equ	157	;# 
   502     009E                     ADRESL          equ	158	;# 
   503     009F                     ADCON1          equ	159	;# 
   504     010C                     EEDATA          equ	268	;# 
   505     010D                     EEADR           equ	269	;# 
   506     010E                     EEDATH          equ	270	;# 
   507     010F                     EEADRH          equ	271	;# 
   508     018C                     EECON1          equ	396	;# 
   509     018D                     EECON2          equ	397	;# 
   510                           
   511                           	psect	idataBANK1
   512     14B1                     __pidataBANK1:
   513                           
   514                           ;initializer for _washing_program
   515     14B1  3447               	retlw	low (STR_7| (0+32768))
   516     14B2  3491               	retlw	high (STR_7| (0+32768))
   517     14B3  344D               	retlw	low (STR_8| (0+32768))
   518     14B4  3491               	retlw	high (STR_8| (0+32768))
   519     14B5  3404               	retlw	low (STR_9| (0+32768))
   520     14B6  3491               	retlw	high (STR_9| (0+32768))
   521     14B7  342E               	retlw	low (STR_10| (0+32768))
   522     14B8  3491               	retlw	high (STR_10| (0+32768))
   523     14B9  34B2               	retlw	low (STR_11| (0+32768))
   524     14BA  3490               	retlw	high (STR_11| (0+32768))
   525     14BB  34BD               	retlw	low (STR_12| (0+32768))
   526     14BC  3490               	retlw	high (STR_12| (0+32768))
   527     14BD  341F               	retlw	low (STR_13| (0+32768))
   528     14BE  3491               	retlw	high (STR_13| (0+32768))
   529     14BF  34E6               	retlw	low (STR_14| (0+32768))
   530     14C0  3490               	retlw	high (STR_14| (0+32768))
   531     14C1  34A7               	retlw	low (STR_15| (0+32768))
   532     14C2  3490               	retlw	high (STR_15| (0+32768))
   533     14C3  34DC               	retlw	low (STR_16| (0+32768))
   534     14C4  3490               	retlw	high (STR_16| (0+32768))
   535     14C5  34F0               	retlw	low (STR_17| (0+32768))
   536     14C6  3490               	retlw	high (STR_17| (0+32768))
   537     14C7  340D               	retlw	low (STR_18| (0+32768))
   538     14C8  3491               	retlw	high (STR_18| (0+32768))
   539                           
   540                           ;initializer for _water_level
   541     14C9  3462               	retlw	low (STR_19| (0+32768))
   542     14CA  3491               	retlw	high (STR_19| (0+32768))
   543     14CB  3467               	retlw	low (STR_20| (0+32768))
   544     14CC  3491               	retlw	high (STR_20| (0+32768))
   545     14CD  3427               	retlw	low (STR_21| (0+32768))
   546     14CE  3491               	retlw	high (STR_21| (0+32768))
   547     14CF  3458               	retlw	low (STR_22| (0+32768))
   548     14D0  3491               	retlw	high (STR_22| (0+32768))
   549     14D1  346B               	retlw	low (STR_23| (0+32768))
   550     14D2  3491               	retlw	high (STR_23| (0+32768))
   551                           
   552                           ;initializer for read_digital_keypad@long_press
   553     14D3  3401               	retlw	1
   554                           
   555                           ;initializer for read_digital_keypad@once
   556     14D4  3401               	retlw	1
   557                           
   558                           ;initializer for _reset_flag
   559     14D5  3411               	retlw	17
   560                           
   561                           ;initializer for _operational_mode
   562     14D6  3401               	retlw	1
   563     0006                     _PORTB          set	6
   564     0008                     _PORTD          set	8
   565     0030                     _RB0            set	48
   566     0061                     _TMR2IF         set	97
   567     0049                     _RE1            set	73
   568     004A                     _RE2            set	74
   569     0092                     _TMR2ON         set	146
   570     003A                     _RC2            set	58
   571     0039                     _RC1            set	57
   572     005E                     _PEIE           set	94
   573     005F                     _GIE            set	95
   574     0092                     _PR2            set	146
   575     0086                     _TRISB          set	134
   576     0088                     _TRISD          set	136
   577     0461                     _TMR2IE         set	1121
   578     0449                     _TRISE1         set	1097
   579     044A                     _TRISE2         set	1098
   580     043A                     _TRISC2         set	1082
   581     0439                     _TRISC1         set	1081
   582                           
   583                           	psect	strings
   584     116F                     __pstrings:
   585     116F                     stringtab:
   586     116F                     __stringtab:
   587                           
   588                           ;	String table - string pointers are 2 bytes each
   589     116F  1BFF               	btfsc	btemp+1,7
   590     1170  2979               	ljmp	stringcode
   591     1171  1383               	bcf	3,7
   592     1172  187F               	btfsc	btemp+1,0
   593     1173  1783               	bsf	3,7
   594     1174  0800               	movf	0,w
   595     1175  0A84               	incf	4,f
   596     1176  1903               	skipnz
   597     1177  0AFF               	incf	btemp+1,f
   598     1178  0008               	return
   599     1179                     stringcode:
   600     1179  087F               	movf	btemp+1,w
   601     117A  397F               	andlw	127
   602     117B  008A               	movwf	10
   603     117C  0804               	movf	4,w
   604     117D  0A84               	incf	4,f
   605     117E  1903               	skipnz
   606     117F  0AFF               	incf	btemp+1,f
   607     1180  0082               	movwf	2
   608     1181                     __stringbase:
   609     1181                     __end_of__stringtab:
   610                           
   611                           	psect	stringtext
   612     1000                     __pstringtext:
   613     1000                     STR_41:
   614     1000  3450               	retlw	80	;'P'
   615     1001  3472               	retlw	114	;'r'
   616     1002  346F               	retlw	111	;'o'
   617     1003  3467               	retlw	103	;'g'
   618     1004  3472               	retlw	114	;'r'
   619     1005  3461               	retlw	97	;'a'
   620     1006  346D               	retlw	109	;'m'
   621     1007  3420               	retlw	32	;' '
   622     1008  3443               	retlw	67	;'C'
   623     1009  346F               	retlw	111	;'o'
   624     100A  346D               	retlw	109	;'m'
   625     100B  3470               	retlw	112	;'p'
   626     100C  346C               	retlw	108	;'l'
   627     100D  3465               	retlw	101	;'e'
   628     100E  3474               	retlw	116	;'t'
   629     100F  3465               	retlw	101	;'e'
   630     1010  3400               	retlw	0
   631     1011                     STR_26:
   632     1011  3457               	retlw	87	;'W'
   633     1012  3441               	retlw	65	;'A'
   634     1013  3453               	retlw	83	;'S'
   635     1014  3448               	retlw	72	;'H'
   636     1015  3449               	retlw	73	;'I'
   637     1016  344E               	retlw	78	;'N'
   638     1017  3447               	retlw	71	;'G'
   639     1018  3420               	retlw	32	;' '
   640     1019  3450               	retlw	80	;'P'
   641     101A  3452               	retlw	82	;'R'
   642     101B  344F               	retlw	79	;'O'
   643     101C  3447               	retlw	71	;'G'
   644     101D  3452               	retlw	82	;'R'
   645     101E  3441               	retlw	65	;'A'
   646     101F  344D               	retlw	77	;'M'
   647     1020  3400               	retlw	0
   648     1021                     STR_3:
   649     1021  3457               	retlw	87	;'W'
   650     1022  3461               	retlw	97	;'a'
   651     1023  3473               	retlw	115	;'s'
   652     1024  3468               	retlw	104	;'h'
   653     1025  3469               	retlw	105	;'i'
   654     1026  346E               	retlw	110	;'n'
   655     1027  3467               	retlw	103	;'g'
   656     1028  3420               	retlw	32	;' '
   657     1029  344D               	retlw	77	;'M'
   658     102A  3461               	retlw	97	;'a'
   659     102B  3463               	retlw	99	;'c'
   660     102C  3468               	retlw	104	;'h'
   661     102D  3469               	retlw	105	;'i'
   662     102E  346E               	retlw	110	;'n'
   663     102F  3465               	retlw	101	;'e'
   664     1030  3400               	retlw	0
   665     1031                     STR_44:
   666     1031  3450               	retlw	80	;'P'
   667     1032  346C               	retlw	108	;'l'
   668     1033  3473               	retlw	115	;'s'
   669     1034  3420               	retlw	32	;' '
   670     1035  3443               	retlw	67	;'C'
   671     1036  346C               	retlw	108	;'l'
   672     1037  346F               	retlw	111	;'o'
   673     1038  3473               	retlw	115	;'s'
   674     1039  3465               	retlw	101	;'e'
   675     103A  3420               	retlw	32	;' '
   676     103B  3444               	retlw	68	;'D'
   677     103C  346F               	retlw	111	;'o'
   678     103D  346F               	retlw	111	;'o'
   679     103E  3472               	retlw	114	;'r'
   680     103F  3400               	retlw	0
   681     1040                     STR_42:
   682     1040  3452               	retlw	82	;'R'
   683     1041  3465               	retlw	101	;'e'
   684     1042  346D               	retlw	109	;'m'
   685     1043  346F               	retlw	111	;'o'
   686     1044  3476               	retlw	118	;'v'
   687     1045  3465               	retlw	101	;'e'
   688     1046  3420               	retlw	32	;' '
   689     1047  3443               	retlw	67	;'C'
   690     1048  346C               	retlw	108	;'l'
   691     1049  346F               	retlw	111	;'o'
   692     104A  3474               	retlw	116	;'t'
   693     104B  3468               	retlw	104	;'h'
   694     104C  3465               	retlw	101	;'e'
   695     104D  3473               	retlw	115	;'s'
   696     104E  3400               	retlw	0
   697     104F                     STR_1:
   698     104F  3450               	retlw	80	;'P'
   699     1050  3472               	retlw	114	;'r'
   700     1051  3465               	retlw	101	;'e'
   701     1052  3473               	retlw	115	;'s'
   702     1053  3473               	retlw	115	;'s'
   703     1054  3420               	retlw	32	;' '
   704     1055  344B               	retlw	75	;'K'
   705     1056  3465               	retlw	101	;'e'
   706     1057  3479               	retlw	121	;'y'
   707     1058  3435               	retlw	53	;'5'
   708     1059  3420               	retlw	32	;' '
   709     105A  3474               	retlw	116	;'t'
   710     105B  346F               	retlw	111	;'o'
   711     105C  3400               	retlw	0
   712     105D                     STR_27:
   713     105D  3457               	retlw	87	;'W'
   714     105E  3461               	retlw	97	;'a'
   715     105F  3474               	retlw	116	;'t'
   716     1060  3465               	retlw	101	;'e'
   717     1061  3472               	retlw	114	;'r'
   718     1062  3420               	retlw	32	;' '
   719     1063  344C               	retlw	76	;'L'
   720     1064  3465               	retlw	101	;'e'
   721     1065  3476               	retlw	118	;'v'
   722     1066  3465               	retlw	101	;'e'
   723     1067  346C               	retlw	108	;'l'
   724     1068  343A               	retlw	58	;':'
   725     1069  3400               	retlw	0
   726     106A                     STR_43:
   727     106A  3444               	retlw	68	;'D'
   728     106B  346F               	retlw	111	;'o'
   729     106C  346F               	retlw	111	;'o'
   730     106D  3472               	retlw	114	;'r'
   731     106E  3420               	retlw	32	;' '
   732     106F  3469               	retlw	105	;'i'
   733     1070  3473               	retlw	115	;'s'
   734     1071  3420               	retlw	32	;' '
   735     1072  344F               	retlw	79	;'O'
   736     1073  3470               	retlw	112	;'p'
   737     1074  3465               	retlw	101	;'e'
   738     1075  346E               	retlw	110	;'n'
   739     1076  3400               	retlw	0
   740     1077                     STR_4:
   741     1077  3450               	retlw	80	;'P'
   742     1078  3472               	retlw	114	;'r'
   743     1079  3465               	retlw	101	;'e'
   744     107A  3473               	retlw	115	;'s'
   745     107B  3473               	retlw	115	;'s'
   746     107C  3420               	retlw	32	;' '
   747     107D  3453               	retlw	83	;'S'
   748     107E  3477               	retlw	119	;'w'
   749     107F  3469               	retlw	105	;'i'
   750     1080  3474               	retlw	116	;'t'
   751     1081  3463               	retlw	99	;'c'
   752     1082  3468               	retlw	104	;'h'
   753     1083  3400               	retlw	0
   754     1084                     STR_24:
   755     1084  3450               	retlw	80	;'P'
   756     1085  346F               	retlw	111	;'o'
   757     1086  3477               	retlw	119	;'w'
   758     1087  3465               	retlw	101	;'e'
   759     1088  3472               	retlw	114	;'r'
   760     1089  3469               	retlw	105	;'i'
   761     108A  346E               	retlw	110	;'n'
   762     108B  3467               	retlw	103	;'g'
   763     108C  3420               	retlw	32	;' '
   764     108D  344F               	retlw	79	;'O'
   765     108E  344E               	retlw	78	;'N'
   766     108F  3400               	retlw	0
   767     1090                     STR_5:
   768     1090  3453               	retlw	83	;'S'
   769     1091  3457               	retlw	87	;'W'
   770     1092  3435               	retlw	53	;'5'
   771     1093  343A               	retlw	58	;':'
   772     1094  3420               	retlw	32	;' '
   773     1095  3453               	retlw	83	;'S'
   774     1096  3454               	retlw	84	;'T'
   775     1097  3441               	retlw	65	;'A'
   776     1098  3452               	retlw	82	;'R'
   777     1099  3454               	retlw	84	;'T'
   778     109A  3420               	retlw	32	;' '
   779     109B  3400               	retlw	0
   780     109C                     STR_32:
   781     109C  3453               	retlw	83	;'S'
   782     109D  3457               	retlw	87	;'W'
   783     109E  3435               	retlw	53	;'5'
   784     109F  343A               	retlw	58	;':'
   785     10A0  3453               	retlw	83	;'S'
   786     10A1  3454               	retlw	84	;'T'
   787     10A2  3441               	retlw	65	;'A'
   788     10A3  3452               	retlw	82	;'R'
   789     10A4  3454               	retlw	84	;'T'
   790     10A5  3420               	retlw	32	;' '
   791     10A6  3400               	retlw	0
   792     10A7                     STR_15:
   793     10A7  3441               	retlw	65	;'A'
   794     10A8  3471               	retlw	113	;'q'
   795     10A9  3475               	retlw	117	;'u'
   796     10AA  3461               	retlw	97	;'a'
   797     10AB  3420               	retlw	32	;' '
   798     10AC  3453               	retlw	83	;'S'
   799     10AD  3474               	retlw	116	;'t'
   800     10AE  346F               	retlw	111	;'o'
   801     10AF  3472               	retlw	114	;'r'
   802     10B0  3465               	retlw	101	;'e'
   803     10B1  3400               	retlw	0
   804     10B2                     STR_11:
   805     10B2  3453               	retlw	83	;'S'
   806     10B3  3474               	retlw	116	;'t'
   807     10B4  3461               	retlw	97	;'a'
   808     10B5  3469               	retlw	105	;'i'
   809     10B6  346E               	retlw	110	;'n'
   810     10B7  3420               	retlw	32	;' '
   811     10B8  3457               	retlw	87	;'W'
   812     10B9  3461               	retlw	97	;'a'
   813     10BA  3473               	retlw	115	;'s'
   814     10BB  3468               	retlw	104	;'h'
   815     10BC  3400               	retlw	0
   816     10BD                     STR_12:
   817     10BD  3445               	retlw	69	;'E'
   818     10BE  3463               	retlw	99	;'c'
   819     10BF  346F               	retlw	111	;'o'
   820     10C0  3463               	retlw	99	;'c'
   821     10C1  346F               	retlw	111	;'o'
   822     10C2  3474               	retlw	116	;'t'
   823     10C3  3474               	retlw	116	;'t'
   824     10C4  346F               	retlw	111	;'o'
   825     10C5  346E               	retlw	110	;'n'
   826     10C6  3473               	retlw	115	;'s'
   827     10C7  3400               	retlw	0
   828     10C8                     STR_30:
   829     10C8  3446               	retlw	70	;'F'
   830     10C9  3475               	retlw	117	;'u'
   831     10CA  346E               	retlw	110	;'n'
   832     10CB  3463               	retlw	99	;'c'
   833     10CC  3474               	retlw	116	;'t'
   834     10CD  3469               	retlw	105	;'i'
   835     10CE  346F               	retlw	111	;'o'
   836     10CF  346E               	retlw	110	;'n'
   837     10D0  343A               	retlw	58	;':'
   838     10D1  3400               	retlw	0
   839     10D2                     STR_33:
   840     10D2  3453               	retlw	83	;'S'
   841     10D3  3457               	retlw	87	;'W'
   842     10D4  3436               	retlw	54	;'6'
   843     10D5  343A               	retlw	58	;':'
   844     10D6  3450               	retlw	80	;'P'
   845     10D7  3441               	retlw	65	;'A'
   846     10D8  3455               	retlw	85	;'U'
   847     10D9  3453               	retlw	83	;'S'
   848     10DA  3445               	retlw	69	;'E'
   849     10DB  3400               	retlw	0
   850     10DC                     STR_16:
   851     10DC  3442               	retlw	66	;'B'
   852     10DD  3465               	retlw	101	;'e'
   853     10DE  3464               	retlw	100	;'d'
   854     10DF  3473               	retlw	115	;'s'
   855     10E0  3468               	retlw	104	;'h'
   856     10E1  3465               	retlw	101	;'e'
   857     10E2  3465               	retlw	101	;'e'
   858     10E3  3474               	retlw	116	;'t'
   859     10E4  3473               	retlw	115	;'s'
   860     10E5  3400               	retlw	0
   861     10E6                     STR_14:
   862     10E6  3457               	retlw	87	;'W'
   863     10E7  3461               	retlw	97	;'a'
   864     10E8  3473               	retlw	115	;'s'
   865     10E9  3468               	retlw	104	;'h'
   866     10EA  3420               	retlw	32	;' '
   867     10EB  344F               	retlw	79	;'O'
   868     10EC  346E               	retlw	110	;'n'
   869     10ED  346C               	retlw	108	;'l'
   870     10EE  3479               	retlw	121	;'y'
   871     10EF  3400               	retlw	0
   872     10F0                     STR_17:
   873     10F0  3452               	retlw	82	;'R'
   874     10F1  3469               	retlw	105	;'i'
   875     10F2  346E               	retlw	110	;'n'
   876     10F3  3473               	retlw	115	;'s'
   877     10F4  3465               	retlw	101	;'e'
   878     10F5  342B               	retlw	43	;'+'
   879     10F6  3444               	retlw	68	;'D'
   880     10F7  3472               	retlw	114	;'r'
   881     10F8  3479               	retlw	121	;'y'
   882     10F9  3400               	retlw	0
   883     10FA                     STR_6:
   884     10FA  3453               	retlw	83	;'S'
   885     10FB  3457               	retlw	87	;'W'
   886     10FC  3436               	retlw	54	;'6'
   887     10FD  343A               	retlw	58	;':'
   888     10FE  3420               	retlw	32	;' '
   889     10FF  3453               	retlw	83	;'S'
   890     1100  3454               	retlw	84	;'T'
   891     1101  344F               	retlw	79	;'O'
   892     1102  3450               	retlw	80	;'P'
   893     1103  3400               	retlw	0
   894     1104                     STR_9:
   895     1104  3444               	retlw	68	;'D'
   896     1105  3465               	retlw	101	;'e'
   897     1106  346C               	retlw	108	;'l'
   898     1107  3469               	retlw	105	;'i'
   899     1108  3463               	retlw	99	;'c'
   900     1109  3461               	retlw	97	;'a'
   901     110A  3474               	retlw	116	;'t'
   902     110B  3465               	retlw	101	;'e'
   903     110C  3400               	retlw	0
   904     110D                     STR_18:
   905     110D  344F               	retlw	79	;'O'
   906     110E  346E               	retlw	110	;'n'
   907     110F  346C               	retlw	108	;'l'
   908     1110  3479               	retlw	121	;'y'
   909     1111  3420               	retlw	32	;' '
   910     1112  3444               	retlw	68	;'D'
   911     1113  3472               	retlw	114	;'r'
   912     1114  3479               	retlw	121	;'y'
   913     1115  3400               	retlw	0
   914     1116                     STR_2:
   915     1116  3450               	retlw	80	;'P'
   916     1117  346F               	retlw	111	;'o'
   917     1118  3477               	retlw	119	;'w'
   918     1119  3465               	retlw	101	;'e'
   919     111A  3472               	retlw	114	;'r'
   920     111B  3420               	retlw	32	;' '
   921     111C  344F               	retlw	79	;'O'
   922     111D  344E               	retlw	78	;'N'
   923     111E  3400               	retlw	0
   924     111F                     STR_13:
   925     111F  3457               	retlw	87	;'W'
   926     1120  346F               	retlw	111	;'o'
   927     1121  346F               	retlw	111	;'o'
   928     1122  346C               	retlw	108	;'l'
   929     1123  3465               	retlw	101	;'e'
   930     1124  346E               	retlw	110	;'n'
   931     1125  3473               	retlw	115	;'s'
   932     1126  3400               	retlw	0
   933     1127                     STR_21:
   934     1127  344D               	retlw	77	;'M'
   935     1128  3465               	retlw	101	;'e'
   936     1129  3464               	retlw	100	;'d'
   937     112A  3469               	retlw	105	;'i'
   938     112B  3475               	retlw	117	;'u'
   939     112C  346D               	retlw	109	;'m'
   940     112D  3400               	retlw	0
   941     112E                     STR_10:
   942     112E  3457               	retlw	87	;'W'
   943     112F  3468               	retlw	104	;'h'
   944     1130  3469               	retlw	105	;'i'
   945     1131  3474               	retlw	116	;'t'
   946     1132  3465               	retlw	101	;'e'
   947     1133  3473               	retlw	115	;'s'
   948     1134  3400               	retlw	0
   949     1135                     STR_29:
   950     1135  3454               	retlw	84	;'T'
   951     1136  3469               	retlw	105	;'i'
   952     1137  346D               	retlw	109	;'m'
   953     1138  3465               	retlw	101	;'e'
   954     1139  343A               	retlw	58	;':'
   955     113A  3400               	retlw	0
   956     113B                     STR_28:
   957     113B  3450               	retlw	80	;'P'
   958     113C  3472               	retlw	114	;'r'
   959     113D  346F               	retlw	111	;'o'
   960     113E  3467               	retlw	103	;'g'
   961     113F  343A               	retlw	58	;':'
   962     1140  3400               	retlw	0
   963     1141                     STR_35:
   964     1141  3452               	retlw	82	;'R'
   965     1142  3469               	retlw	105	;'i'
   966     1143  346E               	retlw	110	;'n'
   967     1144  3473               	retlw	115	;'s'
   968     1145  3465               	retlw	101	;'e'
   969     1146  3400               	retlw	0
   970     1147                     STR_7:
   971     1147  3444               	retlw	68	;'D'
   972     1148  3461               	retlw	97	;'a'
   973     1149  3469               	retlw	105	;'i'
   974     114A  346C               	retlw	108	;'l'
   975     114B  3479               	retlw	121	;'y'
   976     114C  3400               	retlw	0
   977     114D                     STR_8:
   978     114D  3448               	retlw	72	;'H'
   979     114E  3465               	retlw	101	;'e'
   980     114F  3461               	retlw	97	;'a'
   981     1150  3476               	retlw	118	;'v'
   982     1151  3479               	retlw	121	;'y'
   983     1152  3400               	retlw	0
   984     1153                     STR_31:
   985     1153  3454               	retlw	84	;'T'
   986     1154  3469               	retlw	105	;'i'
   987     1155  346D               	retlw	109	;'m'
   988     1156  3465               	retlw	101	;'e'
   989     1157  3400               	retlw	0
   990     1158                     STR_22:
   991     1158  3448               	retlw	72	;'H'
   992     1159  3469               	retlw	105	;'i'
   993     115A  3467               	retlw	103	;'g'
   994     115B  3468               	retlw	104	;'h'
   995     115C  3400               	retlw	0
   996     115D                     STR_36:
   997     115D  3453               	retlw	83	;'S'
   998     115E  3470               	retlw	112	;'p'
   999     115F  3469               	retlw	105	;'i'
  1000     1160  346E               	retlw	110	;'n'
  1001     1161  3400               	retlw	0
  1002     1162                     STR_19:
  1003     1162  3441               	retlw	65	;'A'
  1004     1163  3475               	retlw	117	;'u'
  1005     1164  3474               	retlw	116	;'t'
  1006     1165  346F               	retlw	111	;'o'
  1007     1166  3400               	retlw	0
  1008     1167                     STR_20:
  1009     1167  344C               	retlw	76	;'L'
  1010     1168  346F               	retlw	111	;'o'
  1011     1169  3477               	retlw	119	;'w'
  1012     116A  3400               	retlw	0
  1013     116B                     STR_23:
  1014     116B  344D               	retlw	77	;'M'
  1015     116C  3461               	retlw	97	;'a'
  1016     116D  3478               	retlw	120	;'x'
  1017     116E  3400               	retlw	0
  1018     115D                     STR_38          equ	STR_36
  1019     115D                     STR_39          equ	STR_36
  1020     10B8                     STR_34          equ	STR_11+6
  1021     10B8                     STR_40          equ	STR_11+6
  1022     1141                     STR_37          equ	STR_35
  1023     1021                     STR_25          equ	STR_3
  1024     1153                     STR_46          equ	STR_31
  1025     10D2                     STR_48          equ	STR_33
  1026     10C8                     STR_45          equ	STR_30
  1027     109C                     STR_47          equ	STR_32
  1028                           
  1029                           	psect	cinit
  1030     000F                     start_initialization:	
  1031                           ; #config settings
  1032                           
  1033     000F                     __initialization:
  1034                           
  1035                           ; Initialize objects allocated to BANK1
  1036     000F  1383               	bcf	3,7	;select IRP bank0
  1037     0010  30C6               	movlw	low (__pdataBANK1+38)
  1038     0011  00FD               	movwf	btemp+-1
  1039     0012  3014               	movlw	high __pidataBANK1
  1040     0013  00FE               	movwf	btemp
  1041     0014  30B1               	movlw	low __pidataBANK1
  1042     0015  00FF               	movwf	btemp+1
  1043     0016  30A0               	movlw	low __pdataBANK1
  1044     0017  0084               	movwf	4
  1045     0018  160A  118A  2449  120A  118A  	fcall	init_ram0
  1046                           
  1047                           ; Clear objects allocated to BANK1
  1048     001D  1683               	bsf	3,5	;RP0=1, select bank1
  1049     001E  1303               	bcf	3,6	;RP1=0, select bank1
  1050     001F  01C6               	clrf	__pbssBANK1& (0+127)
  1051     0020  01C7               	clrf	(__pbssBANK1+1)& (0+127)
  1052     0021  01C8               	clrf	(__pbssBANK1+2)& (0+127)
  1053     0022  01C9               	clrf	(__pbssBANK1+3)& (0+127)
  1054     0023  01CA               	clrf	(__pbssBANK1+4)& (0+127)
  1055     0024  01CB               	clrf	(__pbssBANK1+5)& (0+127)
  1056     0025  01CC               	clrf	(__pbssBANK1+6)& (0+127)
  1057     0026  01CD               	clrf	(__pbssBANK1+7)& (0+127)
  1058     0027  01CE               	clrf	(__pbssBANK1+8)& (0+127)
  1059                           
  1060                           ; Clear objects allocated to BANK0
  1061     0028  1283               	bcf	3,5	;RP0=0, select bank0
  1062     0029  1303               	bcf	3,6	;RP1=0, select bank0
  1063     002A  01E9               	clrf	__pbssBANK0& (0+127)
  1064     002B  01EA               	clrf	(__pbssBANK0+1)& (0+127)
  1065                           
  1066                           ; Clear objects allocated to COMMON
  1067     002C  01F9               	clrf	__pbssCOMMON& (0+127)
  1068     002D  01FA               	clrf	(__pbssCOMMON+1)& (0+127)
  1069     002E  01FB               	clrf	(__pbssCOMMON+2)& (0+127)
  1070     002F                     end_of_initialization:	
  1071                           ;End of C runtime variable initialization code
  1072                           
  1073     002F                     __end_of__initialization:
  1074     002F  0183               	clrf	3
  1075     0030  120A  158A  2C26   	ljmp	_main	;jump to C main() function
  1076                           
  1077                           	psect	bssCOMMON
  1078     0079                     __pbssCOMMON:
  1079     0079                     _total_time:
  1080     0079                     	ds	1
  1081     007A                     _min:
  1082     007A                     	ds	1
  1083     007B                     _sec:
  1084     007B                     	ds	1
  1085                           
  1086                           	psect	bssBANK0
  1087     0069                     __pbssBANK0:
  1088     0069                     _level:
  1089     0069                     	ds	1
  1090     006A                     _program_no:
  1091     006A                     	ds	1
  1092                           
  1093                           	psect	bssBANK1
  1094     00C6                     __pbssBANK1:
  1095     00C6                     isr@count:
  1096     00C6                     	ds	4
  1097     00CA                     _time:
  1098     00CA                     	ds	1
  1099     00CB                     _spin_time:
  1100     00CB                     	ds	1
  1101     00CC                     _rinse_time:
  1102     00CC                     	ds	1
  1103     00CD                     _wash_time:
  1104     00CD                     	ds	1
  1105     00CE                     read_digital_keypad@pre_key:
  1106     00CE                     	ds	1
  1107                           
  1108                           	psect	dataBANK1
  1109     00A0                     __pdataBANK1:
  1110     00A0                     _washing_program:
  1111     00A0                     	ds	24
  1112     00B8                     _water_level:
  1113     00B8                     	ds	10
  1114     00C2                     read_digital_keypad@long_press:
  1115     00C2                     	ds	1
  1116     00C3                     read_digital_keypad@once:
  1117     00C3                     	ds	1
  1118     00C4                     _reset_flag:
  1119     00C4                     	ds	1
  1120     00C5                     _operational_mode:
  1121     00C5                     	ds	1
  1122                           
  1123                           	psect	inittext
  1124     1445                     init_fetch0:	
  1125                           ;	Called with low address in FSR and high address in W
  1126                           
  1127     1445  087E               	movf	btemp,w
  1128     1446  008A               	movwf	10
  1129     1447  087F               	movf	btemp+1,w
  1130     1448  0082               	movwf	2
  1131     1449                     init_ram0:	
  1132                           ;Called with:
  1133                           ;	high address of idata address in btemp 
  1134                           ;	low address of idata address in btemp+1 
  1135                           ;	low address of data in FSR
  1136                           ;	high address + 1 of data in btemp-1
  1137                           
  1138     1449  160A  118A  2445  160A  118A  	fcall	init_fetch0
  1139     144E  0080               	movwf	0
  1140     144F  0A84               	incf	4,f
  1141     1450  0804               	movf	4,w
  1142     1451  067D               	xorwf	btemp+-1,w
  1143     1452  1903               	btfsc	3,2
  1144     1453  3400               	retlw	0
  1145     1454  0AFF               	incf	btemp+1,f
  1146     1455  1903               	btfsc	3,2
  1147     1456  0AFE               	incf	btemp,f
  1148     1457  2C49               	goto	init_ram0
  1149                           
  1150                           	psect	cstackBANK1
  1151     00CF                     __pcstackBANK1:
  1152     00CF                     main@delay:
  1153                           
  1154                           ; 4 bytes @ 0x0
  1155     00CF                     	ds	4
  1156     00D3                     main@delay_93:
  1157                           
  1158                           ; 4 bytes @ 0x4
  1159     00D3                     	ds	4
  1160     00D7                     main@key:
  1161                           
  1162                           ; 1 bytes @ 0x8
  1163     00D7                     	ds	1
  1164                           
  1165                           	psect	cstackCOMMON
  1166     0070                     __pcstackCOMMON:
  1167     0070                     ?_init_clcd:
  1168     0070                     ?_init_digital_keypad:	
  1169                           ; 1 bytes @ 0x0
  1170                           
  1171     0070                     ?_init_timer2:	
  1172                           ; 1 bytes @ 0x0
  1173                           
  1174     0070                     ?_read_digital_keypad:	
  1175                           ; 1 bytes @ 0x0
  1176                           
  1177     0070                     ?_clear_screen:	
  1178                           ; 1 bytes @ 0x0
  1179                           
  1180     0070                     ?_power_on_screen:	
  1181                           ; 1 bytes @ 0x0
  1182                           
  1183     0070                     ?_set_time:	
  1184                           ; 1 bytes @ 0x0
  1185                           
  1186     0070                     ?_washing_program_display:	
  1187                           ; 1 bytes @ 0x0
  1188                           
  1189     0070                     ?_water_level_screen:	
  1190                           ; 1 bytes @ 0x0
  1191                           
  1192     0070                     ?_run_program:	
  1193                           ; 1 bytes @ 0x0
  1194                           
  1195     0070                     ?_door_status_check:	
  1196                           ; 1 bytes @ 0x0
  1197                           
  1198     0070                     ?_init_config:	
  1199                           ; 1 bytes @ 0x0
  1200                           
  1201     0070                     ?_main:	
  1202                           ; 1 bytes @ 0x0
  1203                           
  1204     0070                     ?_init_display_controller:	
  1205                           ; 1 bytes @ 0x0
  1206                           
  1207     0070                     ?_isr:	
  1208                           ; 1 bytes @ 0x0
  1209                           
  1210     0070                     read_digital_keypad@mode:	
  1211                           ; 1 bytes @ 0x0
  1212                           
  1213     0070                     ??_isr:	
  1214                           ; 1 bytes @ 0x0
  1215                           
  1216                           
  1217                           ; 1 bytes @ 0x0
  1218     0070                     	ds	2
  1219     0072                     ?_clcd_write:
  1220     0072                     ?___bmul:	
  1221                           ; 1 bytes @ 0x2
  1222                           
  1223     0072                     ?__Umul8_16:	
  1224                           ; 1 bytes @ 0x2
  1225                           
  1226     0072                     ?___awdiv:	
  1227                           ; 2 bytes @ 0x2
  1228                           
  1229     0072                     ?___awmod:	
  1230                           ; 2 bytes @ 0x2
  1231                           
  1232     0072                     ?___xxtofl:	
  1233                           ; 2 bytes @ 0x2
  1234                           
  1235     0072                     clcd_write@mode:	
  1236                           ; 4 bytes @ 0x2
  1237                           
  1238     0072                     read_digital_keypad@key:	
  1239                           ; 1 bytes @ 0x2
  1240                           
  1241     0072                     ___bmul@multiplicand:	
  1242                           ; 1 bytes @ 0x2
  1243                           
  1244     0072                     ___fladd@signs:	
  1245                           ; 1 bytes @ 0x2
  1246                           
  1247     0072                     __Umul8_16@multiplicand:	
  1248                           ; 1 bytes @ 0x2
  1249                           
  1250     0072                     ___awdiv@divisor:	
  1251                           ; 1 bytes @ 0x2
  1252                           
  1253     0072                     ___awmod@divisor:	
  1254                           ; 2 bytes @ 0x2
  1255                           
  1256     0072                     ___xxtofl@val:	
  1257                           ; 2 bytes @ 0x2
  1258                           
  1259     0072                     ??_init_digital_keypad:	
  1260                           ; 4 bytes @ 0x2
  1261                           
  1262     0072                     ??_init_timer2:	
  1263                           ; 1 bytes @ 0x2
  1264                           
  1265     0072                     ??_read_digital_keypad:	
  1266                           ; 1 bytes @ 0x2
  1267                           
  1268     0072                     ??_set_time:	
  1269                           ; 1 bytes @ 0x2
  1270                           
  1271                           
  1272                           ; 1 bytes @ 0x2
  1273     0072                     	ds	1
  1274     0073                     ___bmul@product:
  1275     0073                     ___fladd@aexp:	
  1276                           ; 1 bytes @ 0x3
  1277                           
  1278     0073                     ??_clcd_write:	
  1279                           ; 1 bytes @ 0x3
  1280                           
  1281     0073                     ??___bmul:	
  1282                           ; 1 bytes @ 0x3
  1283                           
  1284                           
  1285                           ; 1 bytes @ 0x3
  1286     0073                     	ds	1
  1287     0074                     ___bmul@multiplier:
  1288     0074                     ___fladd@bexp:	
  1289                           ; 1 bytes @ 0x4
  1290                           
  1291     0074                     ___awdiv@dividend:	
  1292                           ; 1 bytes @ 0x4
  1293                           
  1294     0074                     ___awmod@dividend:	
  1295                           ; 2 bytes @ 0x4
  1296                           
  1297     0074                     ??__Umul8_16:	
  1298                           ; 2 bytes @ 0x4
  1299                           
  1300                           
  1301                           ; 1 bytes @ 0x4
  1302     0074                     	ds	1
  1303     0075                     clcd_write@byte:
  1304     0075                     ___fladd@grs:	
  1305                           ; 1 bytes @ 0x5
  1306                           
  1307                           
  1308                           ; 1 bytes @ 0x5
  1309     0075                     	ds	1
  1310     0076                     ___awmod@counter:
  1311     0076                     ___fltol@sign1:	
  1312                           ; 1 bytes @ 0x6
  1313                           
  1314     0076                     ??_clear_screen:	
  1315                           ; 1 bytes @ 0x6
  1316                           
  1317     0076                     ??_init_display_controller:	
  1318                           ; 1 bytes @ 0x6
  1319                           
  1320     0076                     ??___awdiv:	
  1321                           ; 1 bytes @ 0x6
  1322                           
  1323     0076                     ??___awmod:	
  1324                           ; 1 bytes @ 0x6
  1325                           
  1326     0076                     ??___flsub:	
  1327                           ; 1 bytes @ 0x6
  1328                           
  1329                           
  1330                           ; 1 bytes @ 0x6
  1331     0076                     	ds	1
  1332     0077                     ___awmod@sign:
  1333     0077                     ___fltol@exp1:	
  1334                           ; 1 bytes @ 0x7
  1335                           
  1336                           
  1337                           ; 1 bytes @ 0x7
  1338     0077                     	ds	1
  1339     0078                     ?_clcd_putch:
  1340     0078                     clcd_putch@addr:	
  1341                           ; 1 bytes @ 0x8
  1342                           
  1343     0078                     ??_init_clcd:	
  1344                           ; 1 bytes @ 0x8
  1345                           
  1346     0078                     ??_clcd_print:	
  1347                           ; 1 bytes @ 0x8
  1348                           
  1349     0078                     ??_door_status_check:	
  1350                           ; 1 bytes @ 0x8
  1351                           
  1352     0078                     ??_init_config:	
  1353                           ; 1 bytes @ 0x8
  1354                           
  1355                           
  1356                           ; 1 bytes @ 0x8
  1357     0078                     	ds	1
  1358     0079                     ??_clcd_putch:
  1359                           
  1360                           	psect	cstackBANK0
  1361     0020                     __pcstackBANK0:	
  1362                           ; 1 bytes @ 0x9
  1363                           
  1364     0020                     ?_clcd_print:
  1365     0020                     ?___fladd:	
  1366                           ; 1 bytes @ 0x0
  1367                           
  1368     0020                     ___awdiv@counter:	
  1369                           ; 4 bytes @ 0x0
  1370                           
  1371     0020                     clcd_print@str:	
  1372                           ; 1 bytes @ 0x0
  1373                           
  1374     0020                     __Umul8_16@product:	
  1375                           ; 2 bytes @ 0x0
  1376                           
  1377     0020                     ___fladd@b:	
  1378                           ; 2 bytes @ 0x0
  1379                           
  1380     0020                     ??___xxtofl:	
  1381                           ; 4 bytes @ 0x0
  1382                           
  1383                           
  1384                           ; 1 bytes @ 0x0
  1385     0020                     	ds	1
  1386     0021                     ___awdiv@sign:
  1387                           
  1388                           ; 1 bytes @ 0x1
  1389     0021                     	ds	1
  1390     0022                     clcd_print@addr:
  1391     0022                     ___awdiv@quotient:	
  1392                           ; 1 bytes @ 0x2
  1393                           
  1394     0022                     __Umul8_16@word_mpld:	
  1395                           ; 2 bytes @ 0x2
  1396                           
  1397                           
  1398                           ; 2 bytes @ 0x2
  1399     0022                     	ds	2
  1400     0024                     clcd_putch@data:
  1401     0024                     __Umul8_16@multiplier:	
  1402                           ; 1 bytes @ 0x4
  1403                           
  1404     0024                     ___xxtofl@sign:	
  1405                           ; 1 bytes @ 0x4
  1406                           
  1407     0024                     ___fladd@a:	
  1408                           ; 1 bytes @ 0x4
  1409                           
  1410                           
  1411                           ; 4 bytes @ 0x4
  1412     0024                     	ds	1
  1413     0025                     ___xxtofl@exp:
  1414     0025                     ??_power_on_screen:	
  1415                           ; 1 bytes @ 0x5
  1416                           
  1417     0025                     ??_washing_program_display:	
  1418                           ; 1 bytes @ 0x5
  1419                           
  1420     0025                     ??_water_level_screen:	
  1421                           ; 1 bytes @ 0x5
  1422                           
  1423                           
  1424                           ; 1 bytes @ 0x5
  1425     0025                     	ds	1
  1426     0026                     ___xxtofl@arg:
  1427                           
  1428                           ; 4 bytes @ 0x6
  1429     0026                     	ds	1
  1430     0027                     washing_program_display@key:
  1431     0027                     water_level_screen@key:	
  1432                           ; 1 bytes @ 0x7
  1433                           
  1434                           
  1435                           ; 1 bytes @ 0x7
  1436     0027                     	ds	1
  1437     0028                     power_on_screen@i:
  1438     0028                     ??___fladd:	
  1439                           ; 2 bytes @ 0x8
  1440                           
  1441                           
  1442                           ; 1 bytes @ 0x8
  1443     0028                     	ds	2
  1444     002A                     ?___flmul:
  1445     002A                     power_on_screen@i_194:	
  1446                           ; 4 bytes @ 0xA
  1447                           
  1448     002A                     ___flmul@b:	
  1449                           ; 2 bytes @ 0xA
  1450                           
  1451                           
  1452                           ; 4 bytes @ 0xA
  1453     002A                     	ds	4
  1454     002E                     ___flmul@a:
  1455                           
  1456                           ; 4 bytes @ 0xE
  1457     002E                     	ds	4
  1458     0032                     ??___flmul:
  1459                           
  1460                           ; 1 bytes @ 0x12
  1461     0032                     	ds	5
  1462     0037                     ___flmul@sign:
  1463                           
  1464                           ; 1 bytes @ 0x17
  1465     0037                     	ds	1
  1466     0038                     ___flmul@aexp:
  1467                           
  1468                           ; 1 bytes @ 0x18
  1469     0038                     	ds	1
  1470     0039                     ___flmul@grs:
  1471                           
  1472                           ; 4 bytes @ 0x19
  1473     0039                     	ds	4
  1474     003D                     ___flmul@bexp:
  1475                           
  1476                           ; 1 bytes @ 0x1D
  1477     003D                     	ds	1
  1478     003E                     ___flmul@prod:
  1479                           
  1480                           ; 4 bytes @ 0x1E
  1481     003E                     	ds	4
  1482     0042                     ___flmul@temp:
  1483                           
  1484                           ; 2 bytes @ 0x22
  1485     0042                     	ds	2
  1486     0044                     ?___fltol:
  1487     0044                     ?___flsub:	
  1488                           ; 4 bytes @ 0x24
  1489                           
  1490     0044                     ___fltol@f1:	
  1491                           ; 4 bytes @ 0x24
  1492                           
  1493     0044                     ___flsub@a:	
  1494                           ; 4 bytes @ 0x24
  1495                           
  1496                           
  1497                           ; 4 bytes @ 0x24
  1498     0044                     	ds	4
  1499     0048                     ___flsub@b:
  1500     0048                     ??___fltol:	
  1501                           ; 4 bytes @ 0x28
  1502                           
  1503                           
  1504                           ; 1 bytes @ 0x28
  1505     0048                     	ds	4
  1506     004C                     ?___flge:
  1507     004C                     ___flge@ff1:	
  1508                           ; 1 bit 
  1509                           
  1510                           
  1511                           ; 4 bytes @ 0x2C
  1512     004C                     	ds	4
  1513     0050                     ___flge@ff2:
  1514                           
  1515                           ; 4 bytes @ 0x30
  1516     0050                     	ds	4
  1517     0054                     ??___flge:
  1518                           
  1519                           ; 1 bytes @ 0x34
  1520     0054                     	ds	4
  1521     0058                     ??_run_program:
  1522                           
  1523                           ; 1 bytes @ 0x38
  1524     0058                     	ds	12
  1525     0064                     run_program@key:
  1526                           
  1527                           ; 1 bytes @ 0x44
  1528     0064                     	ds	1
  1529     0065                     ??_main:
  1530                           
  1531                           ; 1 bytes @ 0x45
  1532     0065                     	ds	4
  1533                           
  1534                           	psect	maintext
  1535     0C26                     __pmaintext:	
  1536 ;;
  1537 ;;Main: autosize = 0, tempsize = 4, incstack = 0, save=0
  1538 ;;
  1539 ;; *************** function _main *****************
  1540 ;; Defined at:
  1541 ;;		line 37 in file "main.c"
  1542 ;; Parameters:    Size  Location     Type
  1543 ;;		None
  1544 ;; Auto vars:     Size  Location     Type
  1545 ;;  delay           4    4[BANK1 ] unsigned long 
  1546 ;;  delay           4    0[BANK1 ] unsigned long 
  1547 ;;  key             1    8[BANK1 ] unsigned char 
  1548 ;; Return value:  Size  Location     Type
  1549 ;;                  1    wreg      void 
  1550 ;; Registers used:
  1551 ;;		wreg, fsr0l, fsr0h, status,2, status,0, btemp+1, pclath, cstack
  1552 ;; Tracked objects:
  1553 ;;		On entry : B00/0
  1554 ;;		On exit  : 0/0
  1555 ;;		Unchanged: 0/0
  1556 ;; Data sizes:     COMMON   BANK0   BANK1   BANK3   BANK2
  1557 ;;      Params:         0       0       0       0       0
  1558 ;;      Locals:         0       0       9       0       0
  1559 ;;      Temps:          0       4       0       0       0
  1560 ;;      Totals:         0       4       9       0       0
  1561 ;;Total ram usage:       13 bytes
  1562 ;; Hardware stack levels required when called: 5
  1563 ;; This function calls:
  1564 ;;		_clcd_print
  1565 ;;		_clear_screen
  1566 ;;		_init_config
  1567 ;;		_power_on_screen
  1568 ;;		_read_digital_keypad
  1569 ;;		_run_program
  1570 ;;		_set_time
  1571 ;;		_washing_program_display
  1572 ;;		_water_level_screen
  1573 ;; This function is called by:
  1574 ;;		Startup code after reset
  1575 ;; This function uses a non-reentrant model
  1576 ;;
  1577                           
  1578     0C26                     _main:	
  1579                           ;psect for function _main
  1580                           
  1581     0C26                     l4214:	
  1582                           ;incstack = 0
  1583                           ; Regs used in _main: [wreg-fsr0h+status,2+status,0+btemp+1+pclath+cstack]
  1584                           
  1585                           
  1586                           ;main.c: 38: 
  1587     0C26  120A  118A  27E3  120A  158A  	fcall	_init_config
  1588     0C2B                     l4216:
  1589                           
  1590                           ;main.c: 39:         key = read_digital_keypad(1);;main.c: 40: 
  1591     0C2B  304F               	movlw	low (STR_1| (0+32768))
  1592     0C2C  1283               	bcf	3,5	;RP0=0, select bank0
  1593     0C2D  1303               	bcf	3,6	;RP1=0, select bank0
  1594     0C2E  00A0               	movwf	clcd_print@str
  1595     0C2F  3090               	movlw	high (STR_1| (0+32768))
  1596     0C30  00A1               	movwf	clcd_print@str+1
  1597     0C31  3081               	movlw	129
  1598     0C32  00A2               	movwf	clcd_print@addr
  1599     0C33  160A  118A  2500  120A  158A  	fcall	_clcd_print
  1600     0C38                     l4218:
  1601                           
  1602                           ;main.c: 41:         for (unsigned long int delay =3000; delay--;);
  1603     0C38  3016               	movlw	low (STR_2| (0+32768))
  1604     0C39  1283               	bcf	3,5	;RP0=0, select bank0
  1605     0C3A  1303               	bcf	3,6	;RP1=0, select bank0
  1606     0C3B  00A0               	movwf	clcd_print@str
  1607     0C3C  3091               	movlw	high (STR_2| (0+32768))
  1608     0C3D  00A1               	movwf	clcd_print@str+1
  1609     0C3E  30C4               	movlw	196
  1610     0C3F  00A2               	movwf	clcd_print@addr
  1611     0C40  160A  118A  2500  120A  158A  	fcall	_clcd_print
  1612     0C45                     l4220:
  1613                           
  1614                           ;main.c: 42:         if ((key == 0x99) && (operational_mode == 0x01)) {
  1615     0C45  3021               	movlw	low (STR_3| (0+32768))
  1616     0C46  1283               	bcf	3,5	;RP0=0, select bank0
  1617     0C47  1303               	bcf	3,6	;RP1=0, select bank0
  1618     0C48  00A0               	movwf	clcd_print@str
  1619     0C49  3090               	movlw	high (STR_3| (0+32768))
  1620     0C4A  00A1               	movwf	clcd_print@str+1
  1621     0C4B  3091               	movlw	145
  1622     0C4C  00A2               	movwf	clcd_print@addr
  1623     0C4D  160A  118A  2500  120A  158A  	fcall	_clcd_print
  1624                           
  1625                           ;main.c: 43: 
  1626     0C52  2C9B               	goto	l4226
  1627     0C53                     l4222:
  1628                           
  1629                           ;main.c: 44:             operational_mode = 0x02;;main.c: 45:             reset_flag = 0
      +                          x22;
  1630     0C53  3000               	movlw	0
  1631     0C54  1683               	bsf	3,5	;RP0=1, select bank1
  1632     0C55  1303               	bcf	3,6	;RP1=0, select bank1
  1633     0C56  00D2               	movwf	(main@delay+3)^(0+128)
  1634     0C57  3000               	movlw	0
  1635     0C58  00D1               	movwf	(main@delay+2)^(0+128)
  1636     0C59  300B               	movlw	11
  1637     0C5A  00D0               	movwf	(main@delay+1)^(0+128)
  1638     0C5B  30B8               	movlw	184
  1639     0C5C  00CF               	movwf	main@delay^(0+128)
  1640     0C5D                     l4224:
  1641     0C5D  3001               	movlw	1
  1642     0C5E  1283               	bcf	3,5	;RP0=0, select bank0
  1643     0C5F  1303               	bcf	3,6	;RP1=0, select bank0
  1644     0C60  00E5               	movwf	??_main
  1645     0C61  3000               	movlw	0
  1646     0C62  00E6               	movwf	??_main+1
  1647     0C63  3000               	movlw	0
  1648     0C64  00E7               	movwf	??_main+2
  1649     0C65  3000               	movlw	0
  1650     0C66  00E8               	movwf	??_main+3
  1651     0C67  0865               	movf	??_main,w
  1652     0C68  1683               	bsf	3,5	;RP0=1, select bank1
  1653     0C69  1303               	bcf	3,6	;RP1=0, select bank1
  1654     0C6A  02CF               	subwf	main@delay^(0+128),f
  1655     0C6B  1283               	bcf	3,5	;RP0=0, select bank0
  1656     0C6C  1303               	bcf	3,6	;RP1=0, select bank0
  1657     0C6D  0866               	movf	??_main+1,w
  1658     0C6E  1C03               	skipc
  1659     0C6F  0F66               	incfsz	??_main+1,w
  1660     0C70  2C72               	goto	u5635
  1661     0C71  2C75               	goto	u5636
  1662     0C72                     u5635:
  1663     0C72  1683               	bsf	3,5	;RP0=1, select bank1
  1664     0C73  1303               	bcf	3,6	;RP1=0, select bank1
  1665     0C74  02D0               	subwf	(main@delay+1)^(0+128),f
  1666     0C75                     u5636:
  1667     0C75  1283               	bcf	3,5	;RP0=0, select bank0
  1668     0C76  1303               	bcf	3,6	;RP1=0, select bank0
  1669     0C77  0867               	movf	??_main+2,w
  1670     0C78  1C03               	skipc
  1671     0C79  0F67               	incfsz	??_main+2,w
  1672     0C7A  2C7C               	goto	u5637
  1673     0C7B  2C7F               	goto	u5638
  1674     0C7C                     u5637:
  1675     0C7C  1683               	bsf	3,5	;RP0=1, select bank1
  1676     0C7D  1303               	bcf	3,6	;RP1=0, select bank1
  1677     0C7E  02D1               	subwf	(main@delay+2)^(0+128),f
  1678     0C7F                     u5638:
  1679     0C7F  1283               	bcf	3,5	;RP0=0, select bank0
  1680     0C80  1303               	bcf	3,6	;RP1=0, select bank0
  1681     0C81  0868               	movf	??_main+3,w
  1682     0C82  1C03               	skipc
  1683     0C83  0F68               	incfsz	??_main+3,w
  1684     0C84  2C86               	goto	u5639
  1685     0C85  2C89               	goto	u5630
  1686     0C86                     u5639:
  1687     0C86  1683               	bsf	3,5	;RP0=1, select bank1
  1688     0C87  1303               	bcf	3,6	;RP1=0, select bank1
  1689     0C88  02D2               	subwf	(main@delay+3)^(0+128),f
  1690     0C89                     u5630:
  1691     0C89  1283               	bcf	3,5	;RP0=0, select bank0
  1692     0C8A  1303               	bcf	3,6	;RP1=0, select bank0
  1693     0C8B  1683               	bsf	3,5	;RP0=1, select bank1
  1694     0C8C  1303               	bcf	3,6	;RP1=0, select bank1
  1695     0C8D  0A4F               	incf	main@delay^(0+128),w
  1696     0C8E  1D03               	skipz
  1697     0C8F  2C9A               	goto	u5641
  1698     0C90  0A50               	incf	(main@delay+1)^(0+128),w
  1699     0C91  1D03               	skipz
  1700     0C92  2C9A               	goto	u5641
  1701     0C93  0A51               	incf	(main@delay+2)^(0+128),w
  1702     0C94  1D03               	skipz
  1703     0C95  2C9A               	goto	u5641
  1704     0C96  0A52               	incf	(main@delay+3)^(0+128),w
  1705     0C97  1D03               	btfss	3,2
  1706     0C98  2C9A               	goto	u5641
  1707     0C99  2C9B               	goto	u5640
  1708     0C9A                     u5641:
  1709     0C9A  2C5D               	goto	l4224
  1710     0C9B                     u5640:
  1711     0C9B                     l4226:
  1712                           
  1713                           ;main.c: 43: 
  1714     0C9B  3001               	movlw	1
  1715     0C9C  160A  118A  257E  120A  158A  	fcall	_read_digital_keypad
  1716     0CA1  3A2F               	xorlw	47
  1717     0CA2  1D03               	skipz
  1718     0CA3  2CA5               	goto	u5651
  1719     0CA4  2CA6               	goto	u5650
  1720     0CA5                     u5651:
  1721     0CA5  2C53               	goto	l4222
  1722     0CA6                     u5650:
  1723     0CA6                     l4228:
  1724                           
  1725                           ;main.c: 48: 
  1726     0CA6  160A  118A  2421  120A  158A  	fcall	_clear_screen
  1727     0CAB                     l4230:
  1728                           
  1729                           ;main.c: 49:             operational_mode = 0x03;
  1730     0CAB  120A  118A  2763  120A  158A  	fcall	_power_on_screen
  1731     0CB0                     l4232:
  1732                           
  1733                           ;main.c: 54:             set_time();
  1734     0CB0  3001               	movlw	1
  1735     0CB1  160A  118A  257E  120A  158A  	fcall	_read_digital_keypad
  1736     0CB6  1683               	bsf	3,5	;RP0=1, select bank1
  1737     0CB7  1303               	bcf	3,6	;RP1=0, select bank1
  1738     0CB8  00D7               	movwf	main@key^(0+128)
  1739     0CB9                     l4234:
  1740                           
  1741                           ;main.c: 56:         }
  1742     0CB9  3000               	movlw	0
  1743     0CBA  00D6               	movwf	(main@delay_93+3)^(0+128)
  1744     0CBB  3000               	movlw	0
  1745     0CBC  00D5               	movwf	(main@delay_93+2)^(0+128)
  1746     0CBD  300B               	movlw	11
  1747     0CBE  00D4               	movwf	(main@delay_93+1)^(0+128)
  1748     0CBF  30B8               	movlw	184
  1749     0CC0  00D3               	movwf	main@delay_93^(0+128)
  1750     0CC1                     l4236:
  1751     0CC1  3001               	movlw	1
  1752     0CC2  1283               	bcf	3,5	;RP0=0, select bank0
  1753     0CC3  1303               	bcf	3,6	;RP1=0, select bank0
  1754     0CC4  00E5               	movwf	??_main
  1755     0CC5  3000               	movlw	0
  1756     0CC6  00E6               	movwf	??_main+1
  1757     0CC7  3000               	movlw	0
  1758     0CC8  00E7               	movwf	??_main+2
  1759     0CC9  3000               	movlw	0
  1760     0CCA  00E8               	movwf	??_main+3
  1761     0CCB  0865               	movf	??_main,w
  1762     0CCC  1683               	bsf	3,5	;RP0=1, select bank1
  1763     0CCD  1303               	bcf	3,6	;RP1=0, select bank1
  1764     0CCE  02D3               	subwf	main@delay_93^(0+128),f
  1765     0CCF  1283               	bcf	3,5	;RP0=0, select bank0
  1766     0CD0  1303               	bcf	3,6	;RP1=0, select bank0
  1767     0CD1  0866               	movf	??_main+1,w
  1768     0CD2  1C03               	skipc
  1769     0CD3  0F66               	incfsz	??_main+1,w
  1770     0CD4  2CD6               	goto	u5665
  1771     0CD5  2CD9               	goto	u5666
  1772     0CD6                     u5665:
  1773     0CD6  1683               	bsf	3,5	;RP0=1, select bank1
  1774     0CD7  1303               	bcf	3,6	;RP1=0, select bank1
  1775     0CD8  02D4               	subwf	(main@delay_93+1)^(0+128),f
  1776     0CD9                     u5666:
  1777     0CD9  1283               	bcf	3,5	;RP0=0, select bank0
  1778     0CDA  1303               	bcf	3,6	;RP1=0, select bank0
  1779     0CDB  0867               	movf	??_main+2,w
  1780     0CDC  1C03               	skipc
  1781     0CDD  0F67               	incfsz	??_main+2,w
  1782     0CDE  2CE0               	goto	u5667
  1783     0CDF  2CE3               	goto	u5668
  1784     0CE0                     u5667:
  1785     0CE0  1683               	bsf	3,5	;RP0=1, select bank1
  1786     0CE1  1303               	bcf	3,6	;RP1=0, select bank1
  1787     0CE2  02D5               	subwf	(main@delay_93+2)^(0+128),f
  1788     0CE3                     u5668:
  1789     0CE3  1283               	bcf	3,5	;RP0=0, select bank0
  1790     0CE4  1303               	bcf	3,6	;RP1=0, select bank0
  1791     0CE5  0868               	movf	??_main+3,w
  1792     0CE6  1C03               	skipc
  1793     0CE7  0F68               	incfsz	??_main+3,w
  1794     0CE8  2CEA               	goto	u5669
  1795     0CE9  2CED               	goto	u5660
  1796     0CEA                     u5669:
  1797     0CEA  1683               	bsf	3,5	;RP0=1, select bank1
  1798     0CEB  1303               	bcf	3,6	;RP1=0, select bank1
  1799     0CEC  02D6               	subwf	(main@delay_93+3)^(0+128),f
  1800     0CED                     u5660:
  1801     0CED  1283               	bcf	3,5	;RP0=0, select bank0
  1802     0CEE  1303               	bcf	3,6	;RP1=0, select bank0
  1803     0CEF  1683               	bsf	3,5	;RP0=1, select bank1
  1804     0CF0  1303               	bcf	3,6	;RP1=0, select bank1
  1805     0CF1  0A53               	incf	main@delay_93^(0+128),w
  1806     0CF2  1D03               	skipz
  1807     0CF3  2CFE               	goto	u5671
  1808     0CF4  0A54               	incf	(main@delay_93+1)^(0+128),w
  1809     0CF5  1D03               	skipz
  1810     0CF6  2CFE               	goto	u5671
  1811     0CF7  0A55               	incf	(main@delay_93+2)^(0+128),w
  1812     0CF8  1D03               	skipz
  1813     0CF9  2CFE               	goto	u5671
  1814     0CFA  0A56               	incf	(main@delay_93+3)^(0+128),w
  1815     0CFB  1D03               	btfss	3,2
  1816     0CFC  2CFE               	goto	u5671
  1817     0CFD  2CFF               	goto	u5670
  1818     0CFE                     u5671:
  1819     0CFE  2CC1               	goto	l4236
  1820     0CFF                     u5670:
  1821     0CFF                     l4238:
  1822                           
  1823                           ;main.c: 57:         else if ( key == 0x2F && operational_mode == 0x44 )
  1824     0CFF  3099               	movlw	153
  1825     0D00  1683               	bsf	3,5	;RP0=1, select bank1
  1826     0D01  1303               	bcf	3,6	;RP1=0, select bank1
  1827     0D02  0657               	xorwf	main@key^(0+128),w
  1828     0D03  1D03               	btfss	3,2
  1829     0D04  2D06               	goto	u5681
  1830     0D05  2D07               	goto	u5680
  1831     0D06                     u5681:
  1832     0D06  2D11               	goto	l4244
  1833     0D07                     u5680:
  1834     0D07                     l4240:
  1835     0D07  0345               	decf	_operational_mode^(0+128),w
  1836     0D08  1D03               	btfss	3,2
  1837     0D09  2D0B               	goto	u5691
  1838     0D0A  2D0C               	goto	u5690
  1839     0D0B                     u5691:
  1840     0D0B  2D11               	goto	l4244
  1841     0D0C                     u5690:
  1842     0D0C                     l4242:
  1843                           
  1844                           ;main.c: 59:             operational_mode =0x04;
  1845     0D0C  3002               	movlw	2
  1846     0D0D  00C5               	movwf	_operational_mode^(0+128)
  1847                           
  1848                           ;main.c: 60:             TMR2ON = 1;
  1849     0D0E  3022               	movlw	34
  1850     0D0F  00C4               	movwf	_reset_flag^(0+128)
  1851                           
  1852                           ;main.c: 62: 
  1853     0D10  2D90               	goto	l4284
  1854     0D11                     l4244:
  1855     0D11  3099               	movlw	153
  1856     0D12  0657               	xorwf	main@key^(0+128),w
  1857     0D13  1D03               	btfss	3,2
  1858     0D14  2D16               	goto	u5701
  1859     0D15  2D17               	goto	u5700
  1860     0D16                     u5701:
  1861     0D16  2D51               	goto	l4260
  1862     0D17                     u5700:
  1863     0D17                     l4246:
  1864     0D17  3002               	movlw	2
  1865     0D18  0645               	xorwf	_operational_mode^(0+128),w
  1866     0D19  1D03               	btfss	3,2
  1867     0D1A  2D1C               	goto	u5711
  1868     0D1B  2D1D               	goto	u5710
  1869     0D1C                     u5711:
  1870     0D1C  2D51               	goto	l4260
  1871     0D1D                     u5710:
  1872     0D1D                     l4248:
  1873                           
  1874                           ;main.c: 64: 
  1875     0D1D  3003               	movlw	3
  1876     0D1E  00C5               	movwf	_operational_mode^(0+128)
  1877     0D1F                     l4250:
  1878                           
  1879                           ;main.c: 65:         switch (operational_mode) {
  1880     0D1F  160A  118A  2421  120A  158A  	fcall	_clear_screen
  1881     0D24                     l4252:
  1882                           
  1883                           ;main.c: 66:             case 0x01:
  1884     0D24  3077               	movlw	low (STR_4| (0+32768))
  1885     0D25  1283               	bcf	3,5	;RP0=0, select bank0
  1886     0D26  1303               	bcf	3,6	;RP1=0, select bank0
  1887     0D27  00A0               	movwf	clcd_print@str
  1888     0D28  3090               	movlw	high (STR_4| (0+32768))
  1889     0D29  00A1               	movwf	clcd_print@str+1
  1890     0D2A  3080               	movlw	128
  1891     0D2B  00A2               	movwf	clcd_print@addr
  1892     0D2C  160A  118A  2500  120A  158A  	fcall	_clcd_print
  1893     0D31                     l4254:
  1894                           
  1895                           ;main.c: 67:                 washing_program_display(key);
  1896     0D31  3090               	movlw	low (STR_5| (0+32768))
  1897     0D32  1283               	bcf	3,5	;RP0=0, select bank0
  1898     0D33  1303               	bcf	3,6	;RP1=0, select bank0
  1899     0D34  00A0               	movwf	clcd_print@str
  1900     0D35  3090               	movlw	high (STR_5| (0+32768))
  1901     0D36  00A1               	movwf	clcd_print@str+1
  1902     0D37  30C0               	movlw	192
  1903     0D38  00A2               	movwf	clcd_print@addr
  1904     0D39  160A  118A  2500  120A  158A  	fcall	_clcd_print
  1905     0D3E                     l4256:
  1906                           
  1907                           ;main.c: 68:                 break;
  1908     0D3E  30FA               	movlw	low (STR_6| (0+32768))
  1909     0D3F  1283               	bcf	3,5	;RP0=0, select bank0
  1910     0D40  1303               	bcf	3,6	;RP1=0, select bank0
  1911     0D41  00A0               	movwf	clcd_print@str
  1912     0D42  3090               	movlw	high (STR_6| (0+32768))
  1913     0D43  00A1               	movwf	clcd_print@str+1
  1914     0D44  3090               	movlw	144
  1915     0D45  00A2               	movwf	clcd_print@addr
  1916     0D46  160A  118A  2500  120A  158A  	fcall	_clcd_print
  1917     0D4B                     l4258:
  1918                           
  1919                           ;main.c: 69:             case 0x02:
  1920     0D4B  120A  158A  22D5  120A  158A  	fcall	_set_time
  1921                           
  1922                           ;main.c: 71:                 break;
  1923     0D50  2D90               	goto	l4284
  1924     0D51                     l4260:
  1925     0D51  302F               	movlw	47
  1926     0D52  0657               	xorwf	main@key^(0+128),w
  1927     0D53  1D03               	btfss	3,2
  1928     0D54  2D56               	goto	u5721
  1929     0D55  2D57               	goto	u5720
  1930     0D56                     u5721:
  1931     0D56  2D64               	goto	l59
  1932     0D57                     u5720:
  1933     0D57                     l4262:
  1934     0D57  3044               	movlw	68
  1935     0D58  0645               	xorwf	_operational_mode^(0+128),w
  1936     0D59  1D03               	btfss	3,2
  1937     0D5A  2D5C               	goto	u5731
  1938     0D5B  2D5D               	goto	u5730
  1939     0D5C                     u5731:
  1940     0D5C  2D64               	goto	l59
  1941     0D5D                     u5730:
  1942     0D5D                     l4264:
  1943                           
  1944                           ;main.c: 73:             {;main.c: 74:                 if (key == 0x2F) {
  1945     0D5D  3004               	movlw	4
  1946     0D5E  00C5               	movwf	_operational_mode^(0+128)
  1947                           
  1948                           ;main.c: 75:                     operational_mode = 0x04;
  1949     0D5F  1283               	bcf	3,5	;RP0=0, select bank0
  1950     0D60  1303               	bcf	3,6	;RP1=0, select bank0
  1951     0D61  1512               	bsf	18,2	;volatile
  1952                           
  1953                           ;main.c: 76:                     reset_flag = 0x33;
  1954     0D62  1507               	bsf	7,2	;volatile
  1955     0D63  2D90               	goto	l4284
  1956     0D64                     l59:
  1957                           
  1958                           ;main.c: 80:                     reset_flag = 0x11;
  1959     0D64  2D90               	goto	l4284
  1960     0D65                     l4266:
  1961                           
  1962                           ;main.c: 82:                 }
  1963     0D65  0857               	movf	main@key^(0+128),w
  1964     0D66  120A  158A  21CE  120A  158A  	fcall	_washing_program_display
  1965                           
  1966                           ;main.c: 83:             }
  1967     0D6B  2DA0               	goto	l65
  1968     0D6C                     l4268:
  1969                           
  1970                           ;main.c: 85: 
  1971     0D6C  0857               	movf	main@key^(0+128),w
  1972     0D6D  160A  118A  275D  120A  158A  	fcall	_water_level_screen
  1973                           
  1974                           ;main.c: 86:             case 0x04:
  1975     0D72  2DA0               	goto	l65
  1976     0D73                     l4270:
  1977                           
  1978                           ;main.c: 88:                 break;;main.c: 89:         }
  1979     0D73  302F               	movlw	47
  1980     0D74  0657               	xorwf	main@key^(0+128),w
  1981     0D75  1D03               	btfss	3,2
  1982     0D76  2D78               	goto	u5741
  1983     0D77  2D79               	goto	u5740
  1984     0D78                     u5741:
  1985     0D78  2D7E               	goto	l4276
  1986     0D79                     u5740:
  1987     0D79                     l4272:
  1988                           
  1989                           ;main.c: 90:         reset_flag = 0xFF;
  1990     0D79  3004               	movlw	4
  1991     0D7A  00C5               	movwf	_operational_mode^(0+128)
  1992                           
  1993                           ;main.c: 91:     }
  1994     0D7B  3033               	movlw	51
  1995     0D7C  00C4               	movwf	_reset_flag^(0+128)
  1996                           
  1997                           ;main.c: 92: 
  1998     0D7D  2CB0               	goto	l4232
  1999     0D7E                     l4276:
  2000     0D7E  301F               	movlw	31
  2001     0D7F  0657               	xorwf	main@key^(0+128),w
  2002     0D80  1D03               	btfss	3,2
  2003     0D81  2D83               	goto	u5751
  2004     0D82  2D84               	goto	u5750
  2005     0D83                     u5751:
  2006     0D83  2DA0               	goto	l65
  2007     0D84                     u5750:
  2008     0D84                     l4278:
  2009                           
  2010                           ;main.c: 94: }
  2011     0D84  3001               	movlw	1
  2012     0D85  00C5               	movwf	_operational_mode^(0+128)
  2013     0D86  3011               	movlw	17
  2014     0D87  00C4               	movwf	_reset_flag^(0+128)
  2015     0D88  2CB0               	goto	l4232
  2016     0D89                     l4280:
  2017     0D89  0857               	movf	main@key^(0+128),w
  2018     0D8A  120A  118A  2033  120A  158A  	fcall	_run_program
  2019     0D8F  2DA0               	goto	l65
  2020     0D90                     l4284:
  2021     0D90  1683               	bsf	3,5	;RP0=1, select bank1
  2022     0D91  1303               	bcf	3,6	;RP1=0, select bank1
  2023     0D92  0845               	movf	_operational_mode^(0+128),w
  2024                           
  2025                           ; Switch size 1, requested type "simple"
  2026                           ; Number of cases is 4, Range of values is 1 to 4
  2027                           ; switch strategies available:
  2028                           ; Name         Instructions Cycles
  2029                           ; simple_byte           13     7 (average)
  2030                           ; direct_byte           23    11 (fixed)
  2031                           ; jumptable            263     9 (fixed)
  2032                           ;	Chosen strategy is simple_byte
  2033     0D93  3A01               	xorlw	1	; case 1
  2034     0D94  1903               	skipnz
  2035     0D95  2D65               	goto	l4266
  2036     0D96  3A03               	xorlw	3	; case 2
  2037     0D97  1903               	skipnz
  2038     0D98  2D6C               	goto	l4268
  2039     0D99  3A01               	xorlw	1	; case 3
  2040     0D9A  1903               	skipnz
  2041     0D9B  2D73               	goto	l4270
  2042     0D9C  3A07               	xorlw	7	; case 4
  2043     0D9D  1903               	skipnz
  2044     0D9E  2D89               	goto	l4280
  2045     0D9F  2DA0               	goto	l65
  2046     0DA0                     l65:
  2047     0DA0  30FF               	movlw	255
  2048     0DA1  1683               	bsf	3,5	;RP0=1, select bank1
  2049     0DA2  1303               	bcf	3,6	;RP1=0, select bank1
  2050     0DA3  00C4               	movwf	_reset_flag^(0+128)
  2051     0DA4  2CB0               	goto	l4232
  2052     0DA5  120A  118A  280C   	ljmp	start
  2053     0DA8                     __end_of_main:
  2054                           
  2055                           	psect	text1
  2056     175D                     __ptext1:	
  2057 ;; *************** function _water_level_screen *****************
  2058 ;; Defined at:
  2059 ;;		line 75 in file "washing_machine_function_def.c"
  2060 ;; Parameters:    Size  Location     Type
  2061 ;;  key             1    wreg     unsigned char 
  2062 ;; Auto vars:     Size  Location     Type
  2063 ;;  key             1    7[BANK0 ] unsigned char 
  2064 ;; Return value:  Size  Location     Type
  2065 ;;                  1    wreg      void 
  2066 ;; Registers used:
  2067 ;;		wreg, fsr0l, fsr0h, status,2, status,0, btemp+1, pclath, cstack
  2068 ;; Tracked objects:
  2069 ;;		On entry : 0/0
  2070 ;;		On exit  : 0/0
  2071 ;;		Unchanged: 0/0
  2072 ;; Data sizes:     COMMON   BANK0   BANK1   BANK3   BANK2
  2073 ;;      Params:         0       0       0       0       0
  2074 ;;      Locals:         0       1       0       0       0
  2075 ;;      Temps:          0       2       0       0       0
  2076 ;;      Totals:         0       3       0       0       0
  2077 ;;Total ram usage:        3 bytes
  2078 ;; Hardware stack levels used: 1
  2079 ;; Hardware stack levels required when called: 3
  2080 ;; This function calls:
  2081 ;;		___awmod
  2082 ;;		_clcd_print
  2083 ;;		_clcd_putch
  2084 ;;		_clear_screen
  2085 ;; This function is called by:
  2086 ;;		_main
  2087 ;; This function uses a non-reentrant model
  2088 ;;
  2089                           
  2090     175D                     _water_level_screen:	
  2091                           ;psect for function _water_level_screen
  2092                           
  2093                           
  2094                           ;incstack = 0
  2095                           ; Regs used in _water_level_screen: [wreg-fsr0h+status,2+status,0+btemp+1+pclath+cstack]
  2096                           ;water_level_screen@key stored from wreg
  2097     175D  1283               	bcf	3,5	;RP0=0, select bank0
  2098     175E  1303               	bcf	3,6	;RP1=0, select bank0
  2099     175F  00A7               	movwf	water_level_screen@key
  2100     1760                     l3844:
  2101                           
  2102                           ;washing_machine_function_def.c: 76:     if (reset_flag == 0x02) {
  2103     1760  3002               	movlw	2
  2104     1761  1683               	bsf	3,5	;RP0=1, select bank1
  2105     1762  1303               	bcf	3,6	;RP1=0, select bank1
  2106     1763  0644               	xorwf	_reset_flag^(0+128),w
  2107     1764  1D03               	btfss	3,2
  2108     1765  2F67               	goto	u5171
  2109     1766  2F68               	goto	u5170
  2110     1767                     u5171:
  2111     1767  2F71               	goto	l3850
  2112     1768                     u5170:
  2113     1768                     l3846:
  2114                           
  2115                           ;washing_machine_function_def.c: 77:         clear_screen();
  2116     1768  160A  118A  2421  160A  118A  	fcall	_clear_screen
  2117     176D                     l3848:
  2118                           
  2119                           ;washing_machine_function_def.c: 78:         reset_flag = 0xFF;
  2120     176D  30FF               	movlw	255
  2121     176E  1683               	bsf	3,5	;RP0=1, select bank1
  2122     176F  1303               	bcf	3,6	;RP1=0, select bank1
  2123     1770  00C4               	movwf	_reset_flag^(0+128)
  2124     1771                     l3850:
  2125                           
  2126                           ;washing_machine_function_def.c: 80:     if (key == 0x37) {
  2127     1771  3037               	movlw	55
  2128     1772  1283               	bcf	3,5	;RP0=0, select bank0
  2129     1773  1303               	bcf	3,6	;RP1=0, select bank0
  2130     1774  0627               	xorwf	water_level_screen@key,w
  2131     1775  1D03               	btfss	3,2
  2132     1776  2F78               	goto	u5181
  2133     1777  2F79               	goto	u5180
  2134     1778                     u5181:
  2135     1778  2F89               	goto	l3860
  2136     1779                     u5180:
  2137     1779                     l3852:
  2138                           
  2139                           ;washing_machine_function_def.c: 81:         clear_screen();
  2140     1779  160A  118A  2421  160A  118A  	fcall	_clear_screen
  2141     177E                     l3854:
  2142                           
  2143                           ;washing_machine_function_def.c: 82:         level++;
  2144     177E  3001               	movlw	1
  2145     177F  1283               	bcf	3,5	;RP0=0, select bank0
  2146     1780  1303               	bcf	3,6	;RP1=0, select bank0
  2147     1781  07E9               	addwf	_level,f
  2148     1782                     l3856:
  2149                           
  2150                           ;washing_machine_function_def.c: 83:         if (level == 5) {
  2151     1782  3005               	movlw	5
  2152     1783  0669               	xorwf	_level,w
  2153     1784  1D03               	btfss	3,2
  2154     1785  2F87               	goto	u5191
  2155     1786  2F88               	goto	u5190
  2156     1787                     u5191:
  2157     1787  2F89               	goto	l3860
  2158     1788                     u5190:
  2159     1788                     l3858:
  2160                           
  2161                           ;washing_machine_function_def.c: 84:             level = 0;
  2162     1788  01E9               	clrf	_level
  2163     1789                     l3860:
  2164                           
  2165                           ;washing_machine_function_def.c: 89:     clcd_print("Water Level:", (0x80 + 0));
  2166     1789  305D               	movlw	low (STR_27| (0+32768))
  2167     178A  00A0               	movwf	clcd_print@str
  2168     178B  3090               	movlw	high (STR_27| (0+32768))
  2169     178C  00A1               	movwf	clcd_print@str+1
  2170     178D  3080               	movlw	128
  2171     178E  00A2               	movwf	clcd_print@addr
  2172     178F  160A  118A  2500  160A  118A  	fcall	_clcd_print
  2173     1794                     l3862:
  2174                           
  2175                           ;washing_machine_function_def.c: 90:     clcd_putch('*', (0xC0 + 0));
  2176     1794  30C0               	movlw	192
  2177     1795  00F8               	movwf	clcd_putch@addr
  2178     1796  302A               	movlw	42
  2179     1797  160A  118A  2458  160A  118A  	fcall	_clcd_putch
  2180     179C                     l3864:
  2181                           
  2182                           ;washing_machine_function_def.c: 91:     clcd_print(water_level[level], (0xC0 + 2));
  2183     179C  1283               	bcf	3,5	;RP0=0, select bank0
  2184     179D  1303               	bcf	3,6	;RP1=0, select bank0
  2185     179E  0869               	movf	_level,w
  2186     179F  00A5               	movwf	??_water_level_screen
  2187     17A0  0725               	addwf	??_water_level_screen,w
  2188     17A1  3EB8               	addlw	(low (_water_level| 0))& (0+255)
  2189     17A2  0084               	movwf	4
  2190     17A3  1383               	bcf	3,7	;select IRP bank1
  2191     17A4  0800               	movf	0,w
  2192     17A5  00A0               	movwf	clcd_print@str
  2193     17A6  0A84               	incf	4,f
  2194     17A7  0800               	movf	0,w
  2195     17A8  0384               	decf	4,f
  2196     17A9  00A1               	movwf	clcd_print@str+1
  2197     17AA  30C2               	movlw	194
  2198     17AB  00A2               	movwf	clcd_print@addr
  2199     17AC  160A  118A  2500  160A  118A  	fcall	_clcd_print
  2200     17B1                     l3866:
  2201                           
  2202                           ;washing_machine_function_def.c: 92:     clcd_print(water_level[(level + 1) % 5], (0x90 
      +                          + 2));
  2203     17B1  3005               	movlw	5
  2204     17B2  00F2               	movwf	___awmod@divisor
  2205     17B3  3000               	movlw	0
  2206     17B4  00F3               	movwf	___awmod@divisor+1
  2207     17B5  1283               	bcf	3,5	;RP0=0, select bank0
  2208     17B6  1303               	bcf	3,6	;RP1=0, select bank0
  2209     17B7  0869               	movf	_level,w
  2210     17B8  3E01               	addlw	1
  2211     17B9  00F4               	movwf	___awmod@dividend
  2212     17BA  3000               	movlw	0
  2213     17BB  1803               	skipnc
  2214     17BC  3001               	movlw	1
  2215     17BD  00F5               	movwf	___awmod@dividend+1
  2216     17BE  160A  118A  262B  160A  118A  	fcall	___awmod
  2217     17C3  0872               	movf	?___awmod,w
  2218     17C4  1283               	bcf	3,5	;RP0=0, select bank0
  2219     17C5  1303               	bcf	3,6	;RP1=0, select bank0
  2220     17C6  00A5               	movwf	??_water_level_screen
  2221     17C7  0725               	addwf	??_water_level_screen,w
  2222     17C8  3EB8               	addlw	(low (_water_level| 0))& (0+255)
  2223     17C9  0084               	movwf	4
  2224     17CA  1383               	bcf	3,7	;select IRP bank1
  2225     17CB  0800               	movf	0,w
  2226     17CC  00A0               	movwf	clcd_print@str
  2227     17CD  0A84               	incf	4,f
  2228     17CE  0800               	movf	0,w
  2229     17CF  0384               	decf	4,f
  2230     17D0  00A1               	movwf	clcd_print@str+1
  2231     17D1  3092               	movlw	146
  2232     17D2  00A2               	movwf	clcd_print@addr
  2233     17D3  160A  118A  2500  160A  118A  	fcall	_clcd_print
  2234     17D8                     l3868:
  2235                           
  2236                           ;washing_machine_function_def.c: 93:     clcd_print(water_level[(level + 2) % 5], (0xD0 
      +                          + 2));
  2237     17D8  3005               	movlw	5
  2238     17D9  00F2               	movwf	___awmod@divisor
  2239     17DA  3000               	movlw	0
  2240     17DB  00F3               	movwf	___awmod@divisor+1
  2241     17DC  1283               	bcf	3,5	;RP0=0, select bank0
  2242     17DD  1303               	bcf	3,6	;RP1=0, select bank0
  2243     17DE  0869               	movf	_level,w
  2244     17DF  3E02               	addlw	2
  2245     17E0  00F4               	movwf	___awmod@dividend
  2246     17E1  3000               	movlw	0
  2247     17E2  1803               	skipnc
  2248     17E3  3001               	movlw	1
  2249     17E4  00F5               	movwf	___awmod@dividend+1
  2250     17E5  160A  118A  262B  160A  118A  	fcall	___awmod
  2251     17EA  0872               	movf	?___awmod,w
  2252     17EB  1283               	bcf	3,5	;RP0=0, select bank0
  2253     17EC  1303               	bcf	3,6	;RP1=0, select bank0
  2254     17ED  00A5               	movwf	??_water_level_screen
  2255     17EE  0725               	addwf	??_water_level_screen,w
  2256     17EF  3EB8               	addlw	(low (_water_level| 0))& (0+255)
  2257     17F0  0084               	movwf	4
  2258     17F1  1383               	bcf	3,7	;select IRP bank1
  2259     17F2  0800               	movf	0,w
  2260     17F3  00A0               	movwf	clcd_print@str
  2261     17F4  0A84               	incf	4,f
  2262     17F5  0800               	movf	0,w
  2263     17F6  0384               	decf	4,f
  2264     17F7  00A1               	movwf	clcd_print@str+1
  2265     17F8  30D2               	movlw	210
  2266     17F9  00A2               	movwf	clcd_print@addr
  2267     17FA  160A  118A  2500  160A  118A  	fcall	_clcd_print
  2268     17FF                     l229:
  2269     17FF  0008               	return
  2270     1800                     __end_of_water_level_screen:
  2271                           
  2272                           	psect	text2
  2273     09CE                     __ptext2:	
  2274 ;; *************** function _washing_program_display *****************
  2275 ;; Defined at:
  2276 ;;		line 37 in file "washing_machine_function_def.c"
  2277 ;; Parameters:    Size  Location     Type
  2278 ;;  key             1    wreg     unsigned char 
  2279 ;; Auto vars:     Size  Location     Type
  2280 ;;  key             1    7[BANK0 ] unsigned char 
  2281 ;; Return value:  Size  Location     Type
  2282 ;;                  1    wreg      void 
  2283 ;; Registers used:
  2284 ;;		wreg, fsr0l, fsr0h, status,2, status,0, btemp+1, pclath, cstack
  2285 ;; Tracked objects:
  2286 ;;		On entry : 0/0
  2287 ;;		On exit  : 0/0
  2288 ;;		Unchanged: 0/0
  2289 ;; Data sizes:     COMMON   BANK0   BANK1   BANK3   BANK2
  2290 ;;      Params:         0       0       0       0       0
  2291 ;;      Locals:         0       1       0       0       0
  2292 ;;      Temps:          0       2       0       0       0
  2293 ;;      Totals:         0       3       0       0       0
  2294 ;;Total ram usage:        3 bytes
  2295 ;; Hardware stack levels used: 1
  2296 ;; Hardware stack levels required when called: 3
  2297 ;; This function calls:
  2298 ;;		_clcd_print
  2299 ;;		_clcd_putch
  2300 ;;		_clear_screen
  2301 ;; This function is called by:
  2302 ;;		_main
  2303 ;; This function uses a non-reentrant model
  2304 ;;
  2305                           
  2306     09CE                     _washing_program_display:	
  2307                           ;psect for function _washing_program_display
  2308                           
  2309                           
  2310                           ;incstack = 0
  2311                           ; Regs used in _washing_program_display: [wreg-fsr0h+status,2+status,0+btemp+1+pclath+cs
      +                          tack]
  2312                           ;washing_program_display@key stored from wreg
  2313     09CE  1283               	bcf	3,5	;RP0=0, select bank0
  2314     09CF  1303               	bcf	3,6	;RP1=0, select bank0
  2315     09D0  00A7               	movwf	washing_program_display@key
  2316     09D1                     l3812:
  2317                           
  2318                           ;washing_machine_function_def.c: 38:     if (reset_flag == 0x11) {
  2319     09D1  3011               	movlw	17
  2320     09D2  1683               	bsf	3,5	;RP0=1, select bank1
  2321     09D3  1303               	bcf	3,6	;RP1=0, select bank1
  2322     09D4  0644               	xorwf	_reset_flag^(0+128),w
  2323     09D5  1D03               	btfss	3,2
  2324     09D6  29D8               	goto	u5111
  2325     09D7  29D9               	goto	u5110
  2326     09D8                     u5111:
  2327     09D8  29E2               	goto	l3818
  2328     09D9                     u5110:
  2329     09D9                     l3814:
  2330                           
  2331                           ;washing_machine_function_def.c: 39:         clear_screen();
  2332     09D9  160A  118A  2421  120A  158A  	fcall	_clear_screen
  2333     09DE                     l3816:
  2334                           
  2335                           ;washing_machine_function_def.c: 40:         reset_flag = 0xFF;
  2336     09DE  30FF               	movlw	255
  2337     09DF  1683               	bsf	3,5	;RP0=1, select bank1
  2338     09E0  1303               	bcf	3,6	;RP1=0, select bank1
  2339     09E1  00C4               	movwf	_reset_flag^(0+128)
  2340     09E2                     l3818:
  2341                           
  2342                           ;washing_machine_function_def.c: 43:     if (key == 0x37) {
  2343     09E2  3037               	movlw	55
  2344     09E3  1283               	bcf	3,5	;RP0=0, select bank0
  2345     09E4  1303               	bcf	3,6	;RP1=0, select bank0
  2346     09E5  0627               	xorwf	washing_program_display@key,w
  2347     09E6  1D03               	btfss	3,2
  2348     09E7  29E9               	goto	u5121
  2349     09E8  29EA               	goto	u5120
  2350     09E9                     u5121:
  2351     09E9  29FA               	goto	l3828
  2352     09EA                     u5120:
  2353     09EA                     l3820:
  2354                           
  2355                           ;washing_machine_function_def.c: 44:         clear_screen();
  2356     09EA  160A  118A  2421  120A  158A  	fcall	_clear_screen
  2357     09EF                     l3822:
  2358                           
  2359                           ;washing_machine_function_def.c: 45:         program_no++;
  2360     09EF  3001               	movlw	1
  2361     09F0  1283               	bcf	3,5	;RP0=0, select bank0
  2362     09F1  1303               	bcf	3,6	;RP1=0, select bank0
  2363     09F2  07EA               	addwf	_program_no,f
  2364     09F3                     l3824:
  2365                           
  2366                           ;washing_machine_function_def.c: 46:         if (program_no == 12) {
  2367     09F3  300C               	movlw	12
  2368     09F4  066A               	xorwf	_program_no,w
  2369     09F5  1D03               	btfss	3,2
  2370     09F6  29F8               	goto	u5131
  2371     09F7  29F9               	goto	u5130
  2372     09F8                     u5131:
  2373     09F8  29FA               	goto	l3828
  2374     09F9                     u5130:
  2375     09F9                     l3826:
  2376                           
  2377                           ;washing_machine_function_def.c: 47:             program_no = 0;
  2378     09F9  01EA               	clrf	_program_no
  2379     09FA                     l3828:
  2380                           
  2381                           ;washing_machine_function_def.c: 53:     clcd_print("WASHING PROGRAM", (0x80 + 0));
  2382     09FA  3011               	movlw	low (STR_26| (0+32768))
  2383     09FB  00A0               	movwf	clcd_print@str
  2384     09FC  3090               	movlw	high (STR_26| (0+32768))
  2385     09FD  00A1               	movwf	clcd_print@str+1
  2386     09FE  3080               	movlw	128
  2387     09FF  00A2               	movwf	clcd_print@addr
  2388     0A00  160A  118A  2500  120A  158A  	fcall	_clcd_print
  2389     0A05                     l3830:
  2390                           
  2391                           ;washing_machine_function_def.c: 54:     clcd_putch('*', (0xC0 + 0));
  2392     0A05  30C0               	movlw	192
  2393     0A06  00F8               	movwf	clcd_putch@addr
  2394     0A07  302A               	movlw	42
  2395     0A08  160A  118A  2458  120A  158A  	fcall	_clcd_putch
  2396     0A0D                     l3832:
  2397                           
  2398                           ;washing_machine_function_def.c: 55:     if (program_no <= 9) {
  2399     0A0D  300A               	movlw	10
  2400     0A0E  1283               	bcf	3,5	;RP0=0, select bank0
  2401     0A0F  1303               	bcf	3,6	;RP1=0, select bank0
  2402     0A10  026A               	subwf	_program_no,w
  2403     0A11  1803               	skipnc
  2404     0A12  2A14               	goto	u5141
  2405     0A13  2A15               	goto	u5140
  2406     0A14                     u5141:
  2407     0A14  2A53               	goto	l3836
  2408     0A15                     u5140:
  2409     0A15                     l3834:
  2410                           
  2411                           ;washing_machine_function_def.c: 56:         clcd_print(washing_program[program_no], (0x
      +                          C0 + 1));
  2412     0A15  086A               	movf	_program_no,w
  2413     0A16  00A5               	movwf	??_washing_program_display
  2414     0A17  0725               	addwf	??_washing_program_display,w
  2415     0A18  3EA0               	addlw	(low (_washing_program| 0))& (0+255)
  2416     0A19  0084               	movwf	4
  2417     0A1A  1383               	bcf	3,7	;select IRP bank1
  2418     0A1B  0800               	movf	0,w
  2419     0A1C  00A0               	movwf	clcd_print@str
  2420     0A1D  0A84               	incf	4,f
  2421     0A1E  0800               	movf	0,w
  2422     0A1F  0384               	decf	4,f
  2423     0A20  00A1               	movwf	clcd_print@str+1
  2424     0A21  30C1               	movlw	193
  2425     0A22  00A2               	movwf	clcd_print@addr
  2426     0A23  160A  118A  2500  120A  158A  	fcall	_clcd_print
  2427                           
  2428                           ;washing_machine_function_def.c: 57:         clcd_print(washing_program[program_no + 1],
      +                           (0x90 + 1));
  2429     0A28  1283               	bcf	3,5	;RP0=0, select bank0
  2430     0A29  1303               	bcf	3,6	;RP1=0, select bank0
  2431     0A2A  086A               	movf	_program_no,w
  2432     0A2B  00A5               	movwf	??_washing_program_display
  2433     0A2C  0725               	addwf	??_washing_program_display,w
  2434     0A2D  3EA2               	addlw	(low ((_washing_program| 0+2)))& (0+255)
  2435     0A2E  0084               	movwf	4
  2436     0A2F  1383               	bcf	3,7	;select IRP bank1
  2437     0A30  0800               	movf	0,w
  2438     0A31  00A0               	movwf	clcd_print@str
  2439     0A32  0A84               	incf	4,f
  2440     0A33  0800               	movf	0,w
  2441     0A34  0384               	decf	4,f
  2442     0A35  00A1               	movwf	clcd_print@str+1
  2443     0A36  3091               	movlw	145
  2444     0A37  00A2               	movwf	clcd_print@addr
  2445     0A38  160A  118A  2500  120A  158A  	fcall	_clcd_print
  2446                           
  2447                           ;washing_machine_function_def.c: 58:         clcd_print(washing_program[program_no + 2],
      +                           (0xD0 + 1));
  2448     0A3D  1283               	bcf	3,5	;RP0=0, select bank0
  2449     0A3E  1303               	bcf	3,6	;RP1=0, select bank0
  2450     0A3F  086A               	movf	_program_no,w
  2451     0A40  00A5               	movwf	??_washing_program_display
  2452     0A41  0725               	addwf	??_washing_program_display,w
  2453     0A42  3EA4               	addlw	(low ((_washing_program| 0+4)))& (0+255)
  2454     0A43  0084               	movwf	4
  2455     0A44  1383               	bcf	3,7	;select IRP bank1
  2456     0A45  0800               	movf	0,w
  2457     0A46  00A0               	movwf	clcd_print@str
  2458     0A47  0A84               	incf	4,f
  2459     0A48  0800               	movf	0,w
  2460     0A49  0384               	decf	4,f
  2461     0A4A  00A1               	movwf	clcd_print@str+1
  2462     0A4B  30D1               	movlw	209
  2463     0A4C  00A2               	movwf	clcd_print@addr
  2464     0A4D  160A  118A  2500  120A  158A  	fcall	_clcd_print
  2465                           
  2466                           ;washing_machine_function_def.c: 60:     } else if (program_no == 10) {
  2467     0A52  2AD4               	goto	l223
  2468     0A53                     l3836:
  2469     0A53  300A               	movlw	10
  2470     0A54  066A               	xorwf	_program_no,w
  2471     0A55  1D03               	btfss	3,2
  2472     0A56  2A58               	goto	u5151
  2473     0A57  2A59               	goto	u5150
  2474     0A58                     u5151:
  2475     0A58  2A95               	goto	l3840
  2476     0A59                     u5150:
  2477     0A59                     l3838:
  2478                           
  2479                           ;washing_machine_function_def.c: 61:         clcd_print(washing_program[program_no], (0x
      +                          C0 + 1));
  2480     0A59  086A               	movf	_program_no,w
  2481     0A5A  00A5               	movwf	??_washing_program_display
  2482     0A5B  0725               	addwf	??_washing_program_display,w
  2483     0A5C  3EA0               	addlw	(low (_washing_program| 0))& (0+255)
  2484     0A5D  0084               	movwf	4
  2485     0A5E  1383               	bcf	3,7	;select IRP bank1
  2486     0A5F  0800               	movf	0,w
  2487     0A60  00A0               	movwf	clcd_print@str
  2488     0A61  0A84               	incf	4,f
  2489     0A62  0800               	movf	0,w
  2490     0A63  0384               	decf	4,f
  2491     0A64  00A1               	movwf	clcd_print@str+1
  2492     0A65  30C1               	movlw	193
  2493     0A66  00A2               	movwf	clcd_print@addr
  2494     0A67  160A  118A  2500  120A  158A  	fcall	_clcd_print
  2495                           
  2496                           ;washing_machine_function_def.c: 62:         clcd_print(washing_program[program_no + 1],
      +                           (0x90 + 1));
  2497     0A6C  1283               	bcf	3,5	;RP0=0, select bank0
  2498     0A6D  1303               	bcf	3,6	;RP1=0, select bank0
  2499     0A6E  086A               	movf	_program_no,w
  2500     0A6F  00A5               	movwf	??_washing_program_display
  2501     0A70  0725               	addwf	??_washing_program_display,w
  2502     0A71  3EA2               	addlw	(low ((_washing_program| 0+2)))& (0+255)
  2503     0A72  0084               	movwf	4
  2504     0A73  1383               	bcf	3,7	;select IRP bank1
  2505     0A74  0800               	movf	0,w
  2506     0A75  00A0               	movwf	clcd_print@str
  2507     0A76  0A84               	incf	4,f
  2508     0A77  0800               	movf	0,w
  2509     0A78  0384               	decf	4,f
  2510     0A79  00A1               	movwf	clcd_print@str+1
  2511     0A7A  3091               	movlw	145
  2512     0A7B  00A2               	movwf	clcd_print@addr
  2513     0A7C  160A  118A  2500  120A  158A  	fcall	_clcd_print
  2514                           
  2515                           ;washing_machine_function_def.c: 63:         clcd_print(washing_program[0], (0xD0 + 1));
  2516     0A81  1683               	bsf	3,5	;RP0=1, select bank1
  2517     0A82  1303               	bcf	3,6	;RP1=0, select bank1
  2518     0A83  0820               	movf	_washing_program^(0+128),w
  2519     0A84  1283               	bcf	3,5	;RP0=0, select bank0
  2520     0A85  1303               	bcf	3,6	;RP1=0, select bank0
  2521     0A86  00A0               	movwf	clcd_print@str
  2522     0A87  1683               	bsf	3,5	;RP0=1, select bank1
  2523     0A88  1303               	bcf	3,6	;RP1=0, select bank1
  2524     0A89  0821               	movf	(_washing_program+1)^(0+128),w
  2525     0A8A  1283               	bcf	3,5	;RP0=0, select bank0
  2526     0A8B  1303               	bcf	3,6	;RP1=0, select bank0
  2527     0A8C  00A1               	movwf	clcd_print@str+1
  2528     0A8D  30D1               	movlw	209
  2529     0A8E  00A2               	movwf	clcd_print@addr
  2530     0A8F  160A  118A  2500  120A  158A  	fcall	_clcd_print
  2531                           
  2532                           ;washing_machine_function_def.c: 65:     } else if (program_no == 11) {
  2533     0A94  2AD4               	goto	l223
  2534     0A95                     l3840:
  2535     0A95  300B               	movlw	11
  2536     0A96  066A               	xorwf	_program_no,w
  2537     0A97  1D03               	btfss	3,2
  2538     0A98  2A9A               	goto	u5161
  2539     0A99  2A9B               	goto	u5160
  2540     0A9A                     u5161:
  2541     0A9A  2AD4               	goto	l223
  2542     0A9B                     u5160:
  2543     0A9B                     l3842:
  2544                           
  2545                           ;washing_machine_function_def.c: 66:         clcd_print(washing_program[program_no], (0x
      +                          C0 + 1));
  2546     0A9B  086A               	movf	_program_no,w
  2547     0A9C  00A5               	movwf	??_washing_program_display
  2548     0A9D  0725               	addwf	??_washing_program_display,w
  2549     0A9E  3EA0               	addlw	(low (_washing_program| 0))& (0+255)
  2550     0A9F  0084               	movwf	4
  2551     0AA0  1383               	bcf	3,7	;select IRP bank1
  2552     0AA1  0800               	movf	0,w
  2553     0AA2  00A0               	movwf	clcd_print@str
  2554     0AA3  0A84               	incf	4,f
  2555     0AA4  0800               	movf	0,w
  2556     0AA5  0384               	decf	4,f
  2557     0AA6  00A1               	movwf	clcd_print@str+1
  2558     0AA7  30C1               	movlw	193
  2559     0AA8  00A2               	movwf	clcd_print@addr
  2560     0AA9  160A  118A  2500  120A  158A  	fcall	_clcd_print
  2561                           
  2562                           ;washing_machine_function_def.c: 67:         clcd_print(washing_program[0], (0x90 + 1));
  2563     0AAE  1683               	bsf	3,5	;RP0=1, select bank1
  2564     0AAF  1303               	bcf	3,6	;RP1=0, select bank1
  2565     0AB0  0820               	movf	_washing_program^(0+128),w
  2566     0AB1  1283               	bcf	3,5	;RP0=0, select bank0
  2567     0AB2  1303               	bcf	3,6	;RP1=0, select bank0
  2568     0AB3  00A0               	movwf	clcd_print@str
  2569     0AB4  1683               	bsf	3,5	;RP0=1, select bank1
  2570     0AB5  1303               	bcf	3,6	;RP1=0, select bank1
  2571     0AB6  0821               	movf	(_washing_program+1)^(0+128),w
  2572     0AB7  1283               	bcf	3,5	;RP0=0, select bank0
  2573     0AB8  1303               	bcf	3,6	;RP1=0, select bank0
  2574     0AB9  00A1               	movwf	clcd_print@str+1
  2575     0ABA  3091               	movlw	145
  2576     0ABB  00A2               	movwf	clcd_print@addr
  2577     0ABC  160A  118A  2500  120A  158A  	fcall	_clcd_print
  2578                           
  2579                           ;washing_machine_function_def.c: 68:         clcd_print(washing_program[1], (0xD0 + 1));
  2580     0AC1  1683               	bsf	3,5	;RP0=1, select bank1
  2581     0AC2  1303               	bcf	3,6	;RP1=0, select bank1
  2582     0AC3  0822               	movf	(low ((_washing_program| 0+2)))^(0+128),w
  2583     0AC4  1283               	bcf	3,5	;RP0=0, select bank0
  2584     0AC5  1303               	bcf	3,6	;RP1=0, select bank0
  2585     0AC6  00A0               	movwf	clcd_print@str
  2586     0AC7  1683               	bsf	3,5	;RP0=1, select bank1
  2587     0AC8  1303               	bcf	3,6	;RP1=0, select bank1
  2588     0AC9  0823               	movf	((low ((_washing_program| 0+2))+1))^(0+128),w
  2589     0ACA  1283               	bcf	3,5	;RP0=0, select bank0
  2590     0ACB  1303               	bcf	3,6	;RP1=0, select bank0
  2591     0ACC  00A1               	movwf	clcd_print@str+1
  2592     0ACD  30D1               	movlw	209
  2593     0ACE  00A2               	movwf	clcd_print@addr
  2594     0ACF  160A  118A  2500  120A  158A  	fcall	_clcd_print
  2595     0AD4                     l223:
  2596     0AD4  0008               	return
  2597     0AD5                     __end_of_washing_program_display:
  2598                           
  2599                           	psect	text3
  2600     0AD5                     __ptext3:	
  2601 ;; *************** function _set_time *****************
  2602 ;; Defined at:
  2603 ;;		line 203 in file "washing_machine_function_def.c"
  2604 ;; Parameters:    Size  Location     Type
  2605 ;;		None
  2606 ;; Auto vars:     Size  Location     Type
  2607 ;;		None
  2608 ;; Return value:  Size  Location     Type
  2609 ;;                  1    wreg      void 
  2610 ;; Registers used:
  2611 ;;		wreg, fsr0l, fsr0h, status,2, status,0
  2612 ;; Tracked objects:
  2613 ;;		On entry : 0/0
  2614 ;;		On exit  : 0/0
  2615 ;;		Unchanged: 0/0
  2616 ;; Data sizes:     COMMON   BANK0   BANK1   BANK3   BANK2
  2617 ;;      Params:         0       0       0       0       0
  2618 ;;      Locals:         0       0       0       0       0
  2619 ;;      Temps:          0       0       0       0       0
  2620 ;;      Totals:         0       0       0       0       0
  2621 ;;Total ram usage:        0 bytes
  2622 ;; Hardware stack levels used: 1
  2623 ;; Hardware stack levels required when called: 1
  2624 ;; This function calls:
  2625 ;;		Nothing
  2626 ;; This function is called by:
  2627 ;;		_main
  2628 ;; This function uses a non-reentrant model
  2629 ;;
  2630                           
  2631     0AD5                     _set_time:	
  2632                           ;psect for function _set_time
  2633                           
  2634     0AD5                     l3670:	
  2635                           ;incstack = 0
  2636                           ; Regs used in _set_time: [wreg-fsr0h+status,2+status,0]
  2637                           
  2638                           
  2639                           ;washing_machine_function_def.c: 204:     switch (program_no) {
  2640     0AD5  2BFD               	goto	l3810
  2641     0AD6                     l3672:
  2642                           
  2643                           ;washing_machine_function_def.c: 209:                     min = 0;
  2644     0AD6  01FA               	clrf	_min
  2645     0AD7                     l3674:
  2646                           
  2647                           ;washing_machine_function_def.c: 210:                     sec = 33;
  2648     0AD7  3021               	movlw	33
  2649     0AD8  00FB               	movwf	_sec
  2650                           
  2651                           ;washing_machine_function_def.c: 211:                     break;
  2652     0AD9  2C25               	goto	l348
  2653     0ADA                     l3676:
  2654                           
  2655                           ;washing_machine_function_def.c: 214:                     min = 0;
  2656     0ADA  01FA               	clrf	_min
  2657     0ADB                     l3678:
  2658                           
  2659                           ;washing_machine_function_def.c: 215:                     sec = 41;
  2660     0ADB  3029               	movlw	41
  2661     0ADC  00FB               	movwf	_sec
  2662                           
  2663                           ;washing_machine_function_def.c: 216:                     break;
  2664     0ADD  2C25               	goto	l348
  2665     0ADE                     l3680:
  2666                           
  2667                           ;washing_machine_function_def.c: 219:                     min = 0;
  2668     0ADE  01FA               	clrf	_min
  2669     0ADF                     l3682:
  2670                           
  2671                           ;washing_machine_function_def.c: 220:                     sec = 45;
  2672     0ADF  302D               	movlw	45
  2673     0AE0  00FB               	movwf	_sec
  2674                           
  2675                           ;washing_machine_function_def.c: 221:                     break;
  2676     0AE1  2C25               	goto	l348
  2677     0AE2                     l3686:
  2678     0AE2  0869               	movf	_level,w
  2679                           
  2680                           ; Switch size 1, requested type "simple"
  2681                           ; Number of cases is 5, Range of values is 0 to 4
  2682                           ; switch strategies available:
  2683                           ; Name         Instructions Cycles
  2684                           ; simple_byte           16     9 (average)
  2685                           ; direct_byte           23     8 (fixed)
  2686                           ; jumptable            260     6 (fixed)
  2687                           ;	Chosen strategy is simple_byte
  2688     0AE3  3A00               	xorlw	0	; case 0
  2689     0AE4  1903               	skipnz
  2690     0AE5  2ADA               	goto	l3676
  2691     0AE6  3A01               	xorlw	1	; case 1
  2692     0AE7  1903               	skipnz
  2693     0AE8  2AD6               	goto	l3672
  2694     0AE9  3A03               	xorlw	3	; case 2
  2695     0AEA  1903               	skipnz
  2696     0AEB  2ADA               	goto	l3676
  2697     0AEC  3A01               	xorlw	1	; case 3
  2698     0AED  1903               	skipnz
  2699     0AEE  2ADE               	goto	l3680
  2700     0AEF  3A07               	xorlw	7	; case 4
  2701     0AF0  1903               	skipnz
  2702     0AF1  2ADE               	goto	l3680
  2703     0AF2  2C25               	goto	l348
  2704     0AF3                     l3688:
  2705                           
  2706                           ;washing_machine_function_def.c: 228:                     min = 0;
  2707     0AF3  01FA               	clrf	_min
  2708     0AF4                     l3690:
  2709                           
  2710                           ;washing_machine_function_def.c: 229:                     sec = 43;
  2711     0AF4  302B               	movlw	43
  2712     0AF5  00FB               	movwf	_sec
  2713                           
  2714                           ;washing_machine_function_def.c: 230:                     break;
  2715     0AF6  2C25               	goto	l348
  2716     0AF7                     l3692:
  2717                           
  2718                           ;washing_machine_function_def.c: 233:                     min = 0;
  2719     0AF7  01FA               	clrf	_min
  2720     0AF8                     l3694:
  2721                           
  2722                           ;washing_machine_function_def.c: 234:                     sec = 50;
  2723     0AF8  3032               	movlw	50
  2724     0AF9  00FB               	movwf	_sec
  2725                           
  2726                           ;washing_machine_function_def.c: 235:                     break;
  2727     0AFA  2C25               	goto	l348
  2728     0AFB                     l3696:
  2729                           
  2730                           ;washing_machine_function_def.c: 238:                     min = 0;
  2731     0AFB  01FA               	clrf	_min
  2732     0AFC                     l3698:
  2733                           
  2734                           ;washing_machine_function_def.c: 239:                     sec = 57;
  2735     0AFC  3039               	movlw	57
  2736     0AFD  00FB               	movwf	_sec
  2737                           
  2738                           ;washing_machine_function_def.c: 240:                     break;
  2739     0AFE  2C25               	goto	l348
  2740     0AFF                     l3702:
  2741     0AFF  0869               	movf	_level,w
  2742                           
  2743                           ; Switch size 1, requested type "simple"
  2744                           ; Number of cases is 5, Range of values is 0 to 4
  2745                           ; switch strategies available:
  2746                           ; Name         Instructions Cycles
  2747                           ; simple_byte           16     9 (average)
  2748                           ; direct_byte           23     8 (fixed)
  2749                           ; jumptable            260     6 (fixed)
  2750                           ;	Chosen strategy is simple_byte
  2751     0B00  3A00               	xorlw	0	; case 0
  2752     0B01  1903               	skipnz
  2753     0B02  2AF7               	goto	l3692
  2754     0B03  3A01               	xorlw	1	; case 1
  2755     0B04  1903               	skipnz
  2756     0B05  2AF3               	goto	l3688
  2757     0B06  3A03               	xorlw	3	; case 2
  2758     0B07  1903               	skipnz
  2759     0B08  2AF7               	goto	l3692
  2760     0B09  3A01               	xorlw	1	; case 3
  2761     0B0A  1903               	skipnz
  2762     0B0B  2AFB               	goto	l3696
  2763     0B0C  3A07               	xorlw	7	; case 4
  2764     0B0D  1903               	skipnz
  2765     0B0E  2AFB               	goto	l3696
  2766     0B0F  2C25               	goto	l348
  2767     0B10                     l3704:
  2768                           
  2769                           ;washing_machine_function_def.c: 247:                     min = 0;
  2770     0B10  01FA               	clrf	_min
  2771     0B11                     l3706:
  2772                           
  2773                           ;washing_machine_function_def.c: 248:                     sec = 26;
  2774     0B11  301A               	movlw	26
  2775     0B12  00FB               	movwf	_sec
  2776                           
  2777                           ;washing_machine_function_def.c: 249:                     break;
  2778     0B13  2C25               	goto	l348
  2779     0B14                     l3712:
  2780                           
  2781                           ;washing_machine_function_def.c: 257:                     min = 0;
  2782     0B14  01FA               	clrf	_min
  2783     0B15                     l3714:
  2784                           
  2785                           ;washing_machine_function_def.c: 258:                     sec = 31;
  2786     0B15  301F               	movlw	31
  2787     0B16  00FB               	movwf	_sec
  2788                           
  2789                           ;washing_machine_function_def.c: 259:                     break;
  2790     0B17  2C25               	goto	l348
  2791     0B18                     l3718:
  2792     0B18  0869               	movf	_level,w
  2793                           
  2794                           ; Switch size 1, requested type "simple"
  2795                           ; Number of cases is 5, Range of values is 0 to 4
  2796                           ; switch strategies available:
  2797                           ; Name         Instructions Cycles
  2798                           ; simple_byte           16     9 (average)
  2799                           ; direct_byte           23     8 (fixed)
  2800                           ; jumptable            260     6 (fixed)
  2801                           ;	Chosen strategy is simple_byte
  2802     0B19  3A00               	xorlw	0	; case 0
  2803     0B1A  1903               	skipnz
  2804     0B1B  2B10               	goto	l3704
  2805     0B1C  3A01               	xorlw	1	; case 1
  2806     0B1D  1903               	skipnz
  2807     0B1E  2B10               	goto	l3704
  2808     0B1F  3A03               	xorlw	3	; case 2
  2809     0B20  1903               	skipnz
  2810     0B21  2B10               	goto	l3704
  2811     0B22  3A01               	xorlw	1	; case 3
  2812     0B23  1903               	skipnz
  2813     0B24  2B14               	goto	l3712
  2814     0B25  3A07               	xorlw	7	; case 4
  2815     0B26  1903               	skipnz
  2816     0B27  2B14               	goto	l3712
  2817     0B28  2C25               	goto	l348
  2818     0B29                     l280:	
  2819                           ;washing_machine_function_def.c: 267:                 case 2:
  2820                           
  2821     0B29                     l282:	
  2822                           ;washing_machine_function_def.c: 269:                 case 4:
  2823                           
  2824                           
  2825                           ;washing_machine_function_def.c: 270:                     min = 1;
  2826     0B29  3001               	movlw	1
  2827     0B2A  00FA               	movwf	_min
  2828                           
  2829                           ;washing_machine_function_def.c: 271:                     sec = 16;
  2830     0B2B  3010               	movlw	16
  2831     0B2C  00FB               	movwf	_sec
  2832                           
  2833                           ;washing_machine_function_def.c: 272:                     break;
  2834     0B2D  2C25               	goto	l348
  2835     0B2E                     l3722:
  2836     0B2E  0869               	movf	_level,w
  2837                           
  2838                           ; Switch size 1, requested type "simple"
  2839                           ; Number of cases is 5, Range of values is 0 to 4
  2840                           ; switch strategies available:
  2841                           ; Name         Instructions Cycles
  2842                           ; simple_byte           16     9 (average)
  2843                           ; direct_byte           23     8 (fixed)
  2844                           ; jumptable            260     6 (fixed)
  2845                           ;	Chosen strategy is simple_byte
  2846     0B2F  3A00               	xorlw	0	; case 0
  2847     0B30  1903               	skipnz
  2848     0B31  2B29               	goto	l282
  2849     0B32  3A01               	xorlw	1	; case 1
  2850     0B33  1903               	skipnz
  2851     0B34  2B29               	goto	l280
  2852     0B35  3A03               	xorlw	3	; case 2
  2853     0B36  1903               	skipnz
  2854     0B37  2B29               	goto	l282
  2855     0B38  3A01               	xorlw	1	; case 3
  2856     0B39  1903               	skipnz
  2857     0B3A  2B29               	goto	l282
  2858     0B3B  3A07               	xorlw	7	; case 4
  2859     0B3C  1903               	skipnz
  2860     0B3D  2B29               	goto	l282
  2861     0B3E  2C25               	goto	l348
  2862     0B3F                     l286:	
  2863                           ;washing_machine_function_def.c: 278:                 case 1:
  2864                           
  2865                           
  2866                           ;washing_machine_function_def.c: 279:                     min = 1;
  2867     0B3F  3001               	movlw	1
  2868     0B40  00FA               	movwf	_min
  2869                           
  2870                           ;washing_machine_function_def.c: 280:                     sec = 36;
  2871     0B41  3024               	movlw	36
  2872     0B42  00FB               	movwf	_sec
  2873                           
  2874                           ;washing_machine_function_def.c: 281:                     break;
  2875     0B43  2C25               	goto	l348
  2876     0B44                     l3726:
  2877     0B44  0869               	movf	_level,w
  2878                           
  2879                           ; Switch size 1, requested type "simple"
  2880                           ; Number of cases is 5, Range of values is 0 to 4
  2881                           ; switch strategies available:
  2882                           ; Name         Instructions Cycles
  2883                           ; simple_byte           16     9 (average)
  2884                           ; direct_byte           23     8 (fixed)
  2885                           ; jumptable            260     6 (fixed)
  2886                           ;	Chosen strategy is simple_byte
  2887     0B45  3A00               	xorlw	0	; case 0
  2888     0B46  1903               	skipnz
  2889     0B47  2B3F               	goto	l286
  2890     0B48  3A01               	xorlw	1	; case 1
  2891     0B49  1903               	skipnz
  2892     0B4A  2B3F               	goto	l286
  2893     0B4B  3A03               	xorlw	3	; case 2
  2894     0B4C  1903               	skipnz
  2895     0B4D  2B3F               	goto	l286
  2896     0B4E  3A01               	xorlw	1	; case 3
  2897     0B4F  1903               	skipnz
  2898     0B50  2B3F               	goto	l286
  2899     0B51  3A07               	xorlw	7	; case 4
  2900     0B52  1903               	skipnz
  2901     0B53  2B3F               	goto	l286
  2902     0B54  2C25               	goto	l348
  2903     0B55                     l3728:
  2904                           
  2905                           ;washing_machine_function_def.c: 301:                    min = 0;
  2906     0B55  01FA               	clrf	_min
  2907     0B56                     l3730:
  2908                           
  2909                           ;washing_machine_function_def.c: 302:                     sec = 31;
  2910     0B56  301F               	movlw	31
  2911     0B57  00FB               	movwf	_sec
  2912     0B58                     l298:	
  2913                           ;washing_machine_function_def.c: 304:                 case 4:
  2914                           
  2915                           
  2916                           ;washing_machine_function_def.c: 305:                     min = 0;
  2917     0B58  01FA               	clrf	_min
  2918     0B59                     l3732:
  2919                           
  2920                           ;washing_machine_function_def.c: 306:                     sec = 36;
  2921     0B59  3024               	movlw	36
  2922     0B5A  00FB               	movwf	_sec
  2923                           
  2924                           ;washing_machine_function_def.c: 307:                     break;
  2925     0B5B  2C25               	goto	l348
  2926     0B5C                     l3736:
  2927     0B5C  0869               	movf	_level,w
  2928                           
  2929                           ; Switch size 1, requested type "simple"
  2930                           ; Number of cases is 5, Range of values is 0 to 4
  2931                           ; switch strategies available:
  2932                           ; Name         Instructions Cycles
  2933                           ; simple_byte           16     9 (average)
  2934                           ; direct_byte           23     8 (fixed)
  2935                           ; jumptable            260     6 (fixed)
  2936                           ;	Chosen strategy is simple_byte
  2937     0B5D  3A00               	xorlw	0	; case 0
  2938     0B5E  1903               	skipnz
  2939     0B5F  2B55               	goto	l3728
  2940     0B60  3A01               	xorlw	1	; case 1
  2941     0B61  1903               	skipnz
  2942     0B62  2B55               	goto	l3728
  2943     0B63  3A03               	xorlw	3	; case 2
  2944     0B64  1903               	skipnz
  2945     0B65  2B55               	goto	l3728
  2946     0B66  3A01               	xorlw	1	; case 3
  2947     0B67  1903               	skipnz
  2948     0B68  2B58               	goto	l298
  2949     0B69  3A07               	xorlw	7	; case 4
  2950     0B6A  1903               	skipnz
  2951     0B6B  2B58               	goto	l298
  2952     0B6C  2C25               	goto	l348
  2953     0B6D                     l305:	
  2954                           ;washing_machine_function_def.c: 316:                 case 3:
  2955                           
  2956     0B6D                     l3738:
  2957                           
  2958                           ;washing_machine_function_def.c: 318:                     min = 0;
  2959     0B6D  01FA               	clrf	_min
  2960     0B6E                     l3740:
  2961                           
  2962                           ;washing_machine_function_def.c: 319:                     sec = 29;
  2963     0B6E  301D               	movlw	29
  2964     0B6F  00FB               	movwf	_sec
  2965                           
  2966                           ;washing_machine_function_def.c: 320:                     break;
  2967     0B70  2C25               	goto	l348
  2968     0B71                     l3744:
  2969     0B71  0869               	movf	_level,w
  2970                           
  2971                           ; Switch size 1, requested type "simple"
  2972                           ; Number of cases is 5, Range of values is 0 to 4
  2973                           ; switch strategies available:
  2974                           ; Name         Instructions Cycles
  2975                           ; simple_byte           16     9 (average)
  2976                           ; direct_byte           23     8 (fixed)
  2977                           ; jumptable            260     6 (fixed)
  2978                           ;	Chosen strategy is simple_byte
  2979     0B72  3A00               	xorlw	0	; case 0
  2980     0B73  1903               	skipnz
  2981     0B74  2B6D               	goto	l3738
  2982     0B75  3A01               	xorlw	1	; case 1
  2983     0B76  1903               	skipnz
  2984     0B77  2B6D               	goto	l305
  2985     0B78  3A03               	xorlw	3	; case 2
  2986     0B79  1903               	skipnz
  2987     0B7A  2B6D               	goto	l3738
  2988     0B7B  3A01               	xorlw	1	; case 3
  2989     0B7C  1903               	skipnz
  2990     0B7D  2B6D               	goto	l3738
  2991     0B7E  3A07               	xorlw	7	; case 4
  2992     0B7F  1903               	skipnz
  2993     0B80  2B6D               	goto	l3738
  2994     0B81  2C25               	goto	l348
  2995     0B82                     l3746:
  2996                           
  2997                           ;washing_machine_function_def.c: 327:                     min = 0;
  2998     0B82  01FA               	clrf	_min
  2999     0B83                     l3748:
  3000                           
  3001                           ;washing_machine_function_def.c: 328:                     sec = 46;
  3002     0B83  302E               	movlw	46
  3003     0B84  00FB               	movwf	_sec
  3004                           
  3005                           ;washing_machine_function_def.c: 329:                     break;
  3006     0B85  2C25               	goto	l348
  3007     0B86                     l3750:
  3008                           
  3009                           ;washing_machine_function_def.c: 332:                     min = 0;
  3010     0B86  01FA               	clrf	_min
  3011     0B87                     l3752:
  3012                           
  3013                           ;washing_machine_function_def.c: 333:                     sec = 53;
  3014     0B87  3035               	movlw	53
  3015     0B88  00FB               	movwf	_sec
  3016                           
  3017                           ;washing_machine_function_def.c: 334:                     break;
  3018     0B89  2C25               	goto	l348
  3019     0B8A                     l315:	
  3020                           ;washing_machine_function_def.c: 336:                 case 4:
  3021                           
  3022                           
  3023                           ;washing_machine_function_def.c: 337:                     min = 1;
  3024     0B8A  3001               	movlw	1
  3025     0B8B  00FA               	movwf	_min
  3026     0B8C                     l3754:
  3027                           
  3028                           ;washing_machine_function_def.c: 338:                     sec = 0;
  3029     0B8C  01FB               	clrf	_sec
  3030                           
  3031                           ;washing_machine_function_def.c: 339:                     break;
  3032     0B8D  2C25               	goto	l348
  3033     0B8E                     l3758:
  3034     0B8E  0869               	movf	_level,w
  3035                           
  3036                           ; Switch size 1, requested type "simple"
  3037                           ; Number of cases is 5, Range of values is 0 to 4
  3038                           ; switch strategies available:
  3039                           ; Name         Instructions Cycles
  3040                           ; simple_byte           16     9 (average)
  3041                           ; direct_byte           23     8 (fixed)
  3042                           ; jumptable            260     6 (fixed)
  3043                           ;	Chosen strategy is simple_byte
  3044     0B8F  3A00               	xorlw	0	; case 0
  3045     0B90  1903               	skipnz
  3046     0B91  2B86               	goto	l3750
  3047     0B92  3A01               	xorlw	1	; case 1
  3048     0B93  1903               	skipnz
  3049     0B94  2B82               	goto	l3746
  3050     0B95  3A03               	xorlw	3	; case 2
  3051     0B96  1903               	skipnz
  3052     0B97  2B86               	goto	l3750
  3053     0B98  3A01               	xorlw	1	; case 3
  3054     0B99  1903               	skipnz
  3055     0B9A  2B8A               	goto	l315
  3056     0B9B  3A07               	xorlw	7	; case 4
  3057     0B9C  1903               	skipnz
  3058     0B9D  2B8A               	goto	l315
  3059     0B9E  2C25               	goto	l348
  3060     0B9F                     l3760:
  3061                           
  3062                           ;washing_machine_function_def.c: 346:                     min = 0;
  3063     0B9F  01FA               	clrf	_min
  3064     0BA0                     l3762:
  3065                           
  3066                           ;washing_machine_function_def.c: 347:                     sec = 18;
  3067     0BA0  3012               	movlw	18
  3068     0BA1  00FB               	movwf	_sec
  3069                           
  3070                           ;washing_machine_function_def.c: 348:                     break;
  3071     0BA2  2C25               	goto	l348
  3072     0BA3                     l322:	
  3073                           ;washing_machine_function_def.c: 351:                 case 3:
  3074                           
  3075     0BA3                     l3764:
  3076                           
  3077                           ;washing_machine_function_def.c: 353:                     min = 0;
  3078     0BA3  01FA               	clrf	_min
  3079     0BA4                     l3766:
  3080                           
  3081                           ;washing_machine_function_def.c: 354:                     sec = 20;
  3082     0BA4  3014               	movlw	20
  3083     0BA5  00FB               	movwf	_sec
  3084                           
  3085                           ;washing_machine_function_def.c: 355:                     break;
  3086     0BA6  2C25               	goto	l348
  3087     0BA7                     l3770:
  3088     0BA7  0869               	movf	_level,w
  3089                           
  3090                           ; Switch size 1, requested type "simple"
  3091                           ; Number of cases is 5, Range of values is 0 to 4
  3092                           ; switch strategies available:
  3093                           ; Name         Instructions Cycles
  3094                           ; simple_byte           16     9 (average)
  3095                           ; direct_byte           23     8 (fixed)
  3096                           ; jumptable            260     6 (fixed)
  3097                           ;	Chosen strategy is simple_byte
  3098     0BA8  3A00               	xorlw	0	; case 0
  3099     0BA9  1903               	skipnz
  3100     0BAA  2BA3               	goto	l322
  3101     0BAB  3A01               	xorlw	1	; case 1
  3102     0BAC  1903               	skipnz
  3103     0BAD  2B9F               	goto	l3760
  3104     0BAE  3A03               	xorlw	3	; case 2
  3105     0BAF  1903               	skipnz
  3106     0BB0  2BA3               	goto	l3764
  3107     0BB1  3A01               	xorlw	1	; case 3
  3108     0BB2  1903               	skipnz
  3109     0BB3  2BA3               	goto	l3764
  3110     0BB4  3A07               	xorlw	7	; case 4
  3111     0BB5  1903               	skipnz
  3112     0BB6  2BA3               	goto	l3764
  3113     0BB7  2C25               	goto	l348
  3114     0BB8                     l3772:
  3115                           
  3116                           ;washing_machine_function_def.c: 362:                     min = 0;
  3117     0BB8  01FA               	clrf	_min
  3118     0BB9                     l3774:
  3119                           
  3120                           ;washing_machine_function_def.c: 363:                     sec = 15;
  3121     0BB9  300F               	movlw	15
  3122     0BBA  00FB               	movwf	_sec
  3123                           
  3124                           ;washing_machine_function_def.c: 364:                     break;
  3125     0BBB  2C25               	goto	l348
  3126     0BBC                     l3780:
  3127                           
  3128                           ;washing_machine_function_def.c: 372:                     min = 0;
  3129     0BBC  01FA               	clrf	_min
  3130     0BBD                     l3782:
  3131                           
  3132                           ;washing_machine_function_def.c: 373:                     sec = 25;
  3133     0BBD  3019               	movlw	25
  3134     0BBE  00FB               	movwf	_sec
  3135                           
  3136                           ;washing_machine_function_def.c: 374:                     break;
  3137     0BBF  2C25               	goto	l348
  3138     0BC0                     l3786:
  3139     0BC0  0869               	movf	_level,w
  3140                           
  3141                           ; Switch size 1, requested type "simple"
  3142                           ; Number of cases is 5, Range of values is 0 to 4
  3143                           ; switch strategies available:
  3144                           ; Name         Instructions Cycles
  3145                           ; simple_byte           16     9 (average)
  3146                           ; direct_byte           23     8 (fixed)
  3147                           ; jumptable            260     6 (fixed)
  3148                           ;	Chosen strategy is simple_byte
  3149     0BC1  3A00               	xorlw	0	; case 0
  3150     0BC2  1903               	skipnz
  3151     0BC3  2BA3               	goto	l3764
  3152     0BC4  3A01               	xorlw	1	; case 1
  3153     0BC5  1903               	skipnz
  3154     0BC6  2BB8               	goto	l3772
  3155     0BC7  3A03               	xorlw	3	; case 2
  3156     0BC8  1903               	skipnz
  3157     0BC9  2BA3               	goto	l3764
  3158     0BCA  3A01               	xorlw	1	; case 3
  3159     0BCB  1903               	skipnz
  3160     0BCC  2BBC               	goto	l3780
  3161     0BCD  3A07               	xorlw	7	; case 4
  3162     0BCE  1903               	skipnz
  3163     0BCF  2BBC               	goto	l3780
  3164     0BD0  2C25               	goto	l348
  3165     0BD1                     l3792:
  3166                           
  3167                           ;washing_machine_function_def.c: 386:                     min = 0;
  3168     0BD1  01FA               	clrf	_min
  3169     0BD2                     l3794:
  3170                           
  3171                           ;washing_machine_function_def.c: 387:                     sec = 35;
  3172     0BD2  3023               	movlw	35
  3173     0BD3  00FB               	movwf	_sec
  3174                           
  3175                           ;washing_machine_function_def.c: 388:                     break;
  3176     0BD4  2C25               	goto	l348
  3177     0BD5                     l339:	
  3178                           ;washing_machine_function_def.c: 390:                 case 4:
  3179                           
  3180                           
  3181                           ;washing_machine_function_def.c: 391:                     min = 1;
  3182     0BD5  3001               	movlw	1
  3183     0BD6  00FA               	movwf	_min
  3184                           
  3185                           ;washing_machine_function_def.c: 392:                     sec = 45;
  3186     0BD7  302D               	movlw	45
  3187     0BD8  00FB               	movwf	_sec
  3188                           
  3189                           ;washing_machine_function_def.c: 393:                     break;
  3190     0BD9  2C25               	goto	l348
  3191     0BDA                     l3798:
  3192     0BDA  0869               	movf	_level,w
  3193                           
  3194                           ; Switch size 1, requested type "simple"
  3195                           ; Number of cases is 5, Range of values is 0 to 4
  3196                           ; switch strategies available:
  3197                           ; Name         Instructions Cycles
  3198                           ; simple_byte           16     9 (average)
  3199                           ; direct_byte           23     8 (fixed)
  3200                           ; jumptable            260     6 (fixed)
  3201                           ;	Chosen strategy is simple_byte
  3202     0BDB  3A00               	xorlw	0	; case 0
  3203     0BDC  1903               	skipnz
  3204     0BDD  2BD1               	goto	l3792
  3205     0BDE  3A01               	xorlw	1	; case 1
  3206     0BDF  1903               	skipnz
  3207     0BE0  2BBC               	goto	l3780
  3208     0BE1  3A03               	xorlw	3	; case 2
  3209     0BE2  1903               	skipnz
  3210     0BE3  2BD1               	goto	l3792
  3211     0BE4  3A01               	xorlw	1	; case 3
  3212     0BE5  1903               	skipnz
  3213     0BE6  2BD5               	goto	l339
  3214     0BE7  3A07               	xorlw	7	; case 4
  3215     0BE8  1903               	skipnz
  3216     0BE9  2BD5               	goto	l339
  3217     0BEA  2C25               	goto	l348
  3218     0BEB                     l345:	
  3219                           ;washing_machine_function_def.c: 402:                 case 3:
  3220                           
  3221     0BEB  2AF7               	goto	l3692
  3222     0BEC                     l3806:
  3223     0BEC  0869               	movf	_level,w
  3224                           
  3225                           ; Switch size 1, requested type "simple"
  3226                           ; Number of cases is 5, Range of values is 0 to 4
  3227                           ; switch strategies available:
  3228                           ; Name         Instructions Cycles
  3229                           ; simple_byte           16     9 (average)
  3230                           ; direct_byte           23     8 (fixed)
  3231                           ; jumptable            260     6 (fixed)
  3232                           ;	Chosen strategy is simple_byte
  3233     0BED  3A00               	xorlw	0	; case 0
  3234     0BEE  1903               	skipnz
  3235     0BEF  2AF7               	goto	l3692
  3236     0BF0  3A01               	xorlw	1	; case 1
  3237     0BF1  1903               	skipnz
  3238     0BF2  2BEB               	goto	l345
  3239     0BF3  3A03               	xorlw	3	; case 2
  3240     0BF4  1903               	skipnz
  3241     0BF5  2AF7               	goto	l3692
  3242     0BF6  3A01               	xorlw	1	; case 3
  3243     0BF7  1903               	skipnz
  3244     0BF8  2AF7               	goto	l3692
  3245     0BF9  3A07               	xorlw	7	; case 4
  3246     0BFA  1903               	skipnz
  3247     0BFB  2AF7               	goto	l3692
  3248     0BFC  2C25               	goto	l348
  3249     0BFD                     l3810:
  3250     0BFD  1283               	bcf	3,5	;RP0=0, select bank0
  3251     0BFE  1303               	bcf	3,6	;RP1=0, select bank0
  3252     0BFF  086A               	movf	_program_no,w
  3253                           
  3254                           ; Switch size 1, requested type "simple"
  3255                           ; Number of cases is 12, Range of values is 0 to 11
  3256                           ; switch strategies available:
  3257                           ; Name         Instructions Cycles
  3258                           ; simple_byte           37    19 (average)
  3259                           ; direct_byte           44     8 (fixed)
  3260                           ; jumptable            260     6 (fixed)
  3261                           ;	Chosen strategy is simple_byte
  3262     0C00  3A00               	xorlw	0	; case 0
  3263     0C01  1903               	skipnz
  3264     0C02  2AE2               	goto	l3686
  3265     0C03  3A01               	xorlw	1	; case 1
  3266     0C04  1903               	skipnz
  3267     0C05  2AFF               	goto	l3702
  3268     0C06  3A03               	xorlw	3	; case 2
  3269     0C07  1903               	skipnz
  3270     0C08  2B18               	goto	l3718
  3271     0C09  3A01               	xorlw	1	; case 3
  3272     0C0A  1903               	skipnz
  3273     0C0B  2B2E               	goto	l3722
  3274     0C0C  3A07               	xorlw	7	; case 4
  3275     0C0D  1903               	skipnz
  3276     0C0E  2B44               	goto	l3726
  3277     0C0F  3A01               	xorlw	1	; case 5
  3278     0C10  1903               	skipnz
  3279     0C11  2B5C               	goto	l3736
  3280     0C12  3A03               	xorlw	3	; case 6
  3281     0C13  1903               	skipnz
  3282     0C14  2B71               	goto	l3744
  3283     0C15  3A01               	xorlw	1	; case 7
  3284     0C16  1903               	skipnz
  3285     0C17  2B8E               	goto	l3758
  3286     0C18  3A0F               	xorlw	15	; case 8
  3287     0C19  1903               	skipnz
  3288     0C1A  2BA7               	goto	l3770
  3289     0C1B  3A01               	xorlw	1	; case 9
  3290     0C1C  1903               	skipnz
  3291     0C1D  2BC0               	goto	l3786
  3292     0C1E  3A03               	xorlw	3	; case 10
  3293     0C1F  1903               	skipnz
  3294     0C20  2BDA               	goto	l3798
  3295     0C21  3A01               	xorlw	1	; case 11
  3296     0C22  1903               	skipnz
  3297     0C23  2BEC               	goto	l3806
  3298     0C24  2C25               	goto	l348
  3299     0C25                     l348:
  3300     0C25  0008               	return
  3301     0C26                     __end_of_set_time:
  3302                           
  3303                           	psect	text4
  3304     0033                     __ptext4:	
  3305 ;; *************** function _run_program *****************
  3306 ;; Defined at:
  3307 ;;		line 97 in file "washing_machine_function_def.c"
  3308 ;; Parameters:    Size  Location     Type
  3309 ;;  key             1    wreg     unsigned char 
  3310 ;; Auto vars:     Size  Location     Type
  3311 ;;  key             1   68[BANK0 ] unsigned char 
  3312 ;; Return value:  Size  Location     Type
  3313 ;;                  1    wreg      void 
  3314 ;; Registers used:
  3315 ;;		wreg, fsr0l, fsr0h, status,2, status,0, btemp+1, pclath, cstack
  3316 ;; Tracked objects:
  3317 ;;		On entry : 0/0
  3318 ;;		On exit  : 0/0
  3319 ;;		Unchanged: 0/0
  3320 ;; Data sizes:     COMMON   BANK0   BANK1   BANK3   BANK2
  3321 ;;      Params:         0       0       0       0       0
  3322 ;;      Locals:         0       1       0       0       0
  3323 ;;      Temps:          0      12       0       0       0
  3324 ;;      Totals:         0      13       0       0       0
  3325 ;;Total ram usage:       13 bytes
  3326 ;; Hardware stack levels used: 1
  3327 ;; Hardware stack levels required when called: 4
  3328 ;; This function calls:
  3329 ;;		___awdiv
  3330 ;;		___awmod
  3331 ;;		___bmul
  3332 ;;		___flge
  3333 ;;		___flmul
  3334 ;;		___flsub
  3335 ;;		___fltol
  3336 ;;		___xxtofl
  3337 ;;		_clcd_print
  3338 ;;		_clcd_putch
  3339 ;;		_clear_screen
  3340 ;;		_door_status_check
  3341 ;; This function is called by:
  3342 ;;		_main
  3343 ;; This function uses a non-reentrant model
  3344 ;;
  3345                           
  3346     0033                     _run_program:	
  3347                           ;psect for function _run_program
  3348                           
  3349                           
  3350                           ;incstack = 0
  3351                           ; Regs used in _run_program: [wreg-fsr0h+status,2+status,0+btemp+1+pclath+cstack]
  3352                           ;run_program@key stored from wreg
  3353     0033  1283               	bcf	3,5	;RP0=0, select bank0
  3354     0034  1303               	bcf	3,6	;RP1=0, select bank0
  3355     0035  00E4               	movwf	run_program@key
  3356     0036                     l4100:
  3357                           
  3358                           ;washing_machine_function_def.c: 97: void run_program(unsigned char key);washing_machine
      +                          _function_def.c: 98: {;washing_machine_function_def.c: 99:     door_status_check();
  3359     0036  120A  158A  2009  120A  118A  	fcall	_door_status_check
  3360     003B                     l4102:
  3361                           
  3362                           ;washing_machine_function_def.c: 100:     if (reset_flag == 0x33) {
  3363     003B  3033               	movlw	51
  3364     003C  1683               	bsf	3,5	;RP0=1, select bank1
  3365     003D  1303               	bcf	3,6	;RP1=0, select bank1
  3366     003E  0644               	xorwf	_reset_flag^(0+128),w
  3367     003F  1D03               	btfss	3,2
  3368     0040  2842               	goto	u5531
  3369     0041  2843               	goto	u5530
  3370     0042                     u5531:
  3371     0042  2A0A               	goto	l4148
  3372     0043                     u5530:
  3373     0043                     l4104:
  3374                           
  3375                           ;washing_machine_function_def.c: 101:         clear_screen();
  3376     0043  160A  118A  2421  120A  118A  	fcall	_clear_screen
  3377     0048                     l4106:
  3378                           
  3379                           ;washing_machine_function_def.c: 102:         clcd_print("Prog:", (0x80 + 0));
  3380     0048  303B               	movlw	low (STR_28| (0+32768))
  3381     0049  1283               	bcf	3,5	;RP0=0, select bank0
  3382     004A  1303               	bcf	3,6	;RP1=0, select bank0
  3383     004B  00A0               	movwf	clcd_print@str
  3384     004C  3091               	movlw	high (STR_28| (0+32768))
  3385     004D  00A1               	movwf	clcd_print@str+1
  3386     004E  3080               	movlw	128
  3387     004F  00A2               	movwf	clcd_print@addr
  3388     0050  160A  118A  2500  120A  118A  	fcall	_clcd_print
  3389     0055                     l4108:
  3390                           
  3391                           ;washing_machine_function_def.c: 103:         clcd_print(washing_program[program_no], (0
      +                          x80 + 0));
  3392     0055  1283               	bcf	3,5	;RP0=0, select bank0
  3393     0056  1303               	bcf	3,6	;RP1=0, select bank0
  3394     0057  086A               	movf	_program_no,w
  3395     0058  00D8               	movwf	??_run_program
  3396     0059  0758               	addwf	??_run_program,w
  3397     005A  3EA0               	addlw	(low (_washing_program| 0))& (0+255)
  3398     005B  0084               	movwf	4
  3399     005C  1383               	bcf	3,7	;select IRP bank1
  3400     005D  0800               	movf	0,w
  3401     005E  00A0               	movwf	clcd_print@str
  3402     005F  0A84               	incf	4,f
  3403     0060  0800               	movf	0,w
  3404     0061  0384               	decf	4,f
  3405     0062  00A1               	movwf	clcd_print@str+1
  3406     0063  3080               	movlw	128
  3407     0064  00A2               	movwf	clcd_print@addr
  3408     0065  160A  118A  2500  120A  118A  	fcall	_clcd_print
  3409     006A                     l4110:
  3410                           
  3411                           ;washing_machine_function_def.c: 104:         clcd_print("Time:", (0xC0 + 0));
  3412     006A  3035               	movlw	low (STR_29| (0+32768))
  3413     006B  1283               	bcf	3,5	;RP0=0, select bank0
  3414     006C  1303               	bcf	3,6	;RP1=0, select bank0
  3415     006D  00A0               	movwf	clcd_print@str
  3416     006E  3091               	movlw	high (STR_29| (0+32768))
  3417     006F  00A1               	movwf	clcd_print@str+1
  3418     0070  30C0               	movlw	192
  3419     0071  00A2               	movwf	clcd_print@addr
  3420     0072  160A  118A  2500  120A  118A  	fcall	_clcd_print
  3421     0077                     l4112:
  3422                           
  3423                           ;washing_machine_function_def.c: 107:         clcd_putch(min/10+'0',(0xC0 + 6));
  3424     0077  30C6               	movlw	198
  3425     0078  00F8               	movwf	clcd_putch@addr
  3426     0079  300A               	movlw	10
  3427     007A  00F2               	movwf	___awdiv@divisor
  3428     007B  3000               	movlw	0
  3429     007C  00F3               	movwf	___awdiv@divisor+1
  3430     007D  087A               	movf	_min,w
  3431     007E  1283               	bcf	3,5	;RP0=0, select bank0
  3432     007F  1303               	bcf	3,6	;RP1=0, select bank0
  3433     0080  00D8               	movwf	??_run_program
  3434     0081  01D9               	clrf	??_run_program+1
  3435     0082  0858               	movf	??_run_program,w
  3436     0083  00F4               	movwf	___awdiv@dividend
  3437     0084  0859               	movf	??_run_program+1,w
  3438     0085  00F5               	movwf	___awdiv@dividend+1
  3439     0086  160A  118A  2682  120A  118A  	fcall	___awdiv
  3440     008B  0872               	movf	?___awdiv,w
  3441     008C  3E30               	addlw	48
  3442     008D  160A  118A  2458  120A  118A  	fcall	_clcd_putch
  3443     0092                     l4114:
  3444                           
  3445                           ;washing_machine_function_def.c: 108:         clcd_putch(min%10+'0',(0xC0 + 7));
  3446     0092  30C7               	movlw	199
  3447     0093  00F8               	movwf	clcd_putch@addr
  3448     0094  300A               	movlw	10
  3449     0095  00F2               	movwf	___awmod@divisor
  3450     0096  3000               	movlw	0
  3451     0097  00F3               	movwf	___awmod@divisor+1
  3452     0098  087A               	movf	_min,w
  3453     0099  1283               	bcf	3,5	;RP0=0, select bank0
  3454     009A  1303               	bcf	3,6	;RP1=0, select bank0
  3455     009B  00D8               	movwf	??_run_program
  3456     009C  01D9               	clrf	??_run_program+1
  3457     009D  0858               	movf	??_run_program,w
  3458     009E  00F4               	movwf	___awmod@dividend
  3459     009F  0859               	movf	??_run_program+1,w
  3460     00A0  00F5               	movwf	___awmod@dividend+1
  3461     00A1  160A  118A  262B  120A  118A  	fcall	___awmod
  3462     00A6  0872               	movf	?___awmod,w
  3463     00A7  3E30               	addlw	48
  3464     00A8  160A  118A  2458  120A  118A  	fcall	_clcd_putch
  3465     00AD                     l4116:
  3466                           
  3467                           ;washing_machine_function_def.c: 109:         clcd_putch(':',(0xC0 + 8));
  3468     00AD  30C8               	movlw	200
  3469     00AE  00F8               	movwf	clcd_putch@addr
  3470     00AF  303A               	movlw	58
  3471     00B0  160A  118A  2458  120A  118A  	fcall	_clcd_putch
  3472     00B5                     l4118:
  3473                           
  3474                           ;washing_machine_function_def.c: 110:         clcd_putch(sec/10+'0',(0xC0 + 9));
  3475     00B5  30C9               	movlw	201
  3476     00B6  00F8               	movwf	clcd_putch@addr
  3477     00B7  300A               	movlw	10
  3478     00B8  00F2               	movwf	___awdiv@divisor
  3479     00B9  3000               	movlw	0
  3480     00BA  00F3               	movwf	___awdiv@divisor+1
  3481     00BB  087B               	movf	_sec,w
  3482     00BC  1283               	bcf	3,5	;RP0=0, select bank0
  3483     00BD  1303               	bcf	3,6	;RP1=0, select bank0
  3484     00BE  00D8               	movwf	??_run_program
  3485     00BF  01D9               	clrf	??_run_program+1
  3486     00C0  0858               	movf	??_run_program,w
  3487     00C1  00F4               	movwf	___awdiv@dividend
  3488     00C2  0859               	movf	??_run_program+1,w
  3489     00C3  00F5               	movwf	___awdiv@dividend+1
  3490     00C4  160A  118A  2682  120A  118A  	fcall	___awdiv
  3491     00C9  0872               	movf	?___awdiv,w
  3492     00CA  3E30               	addlw	48
  3493     00CB  160A  118A  2458  120A  118A  	fcall	_clcd_putch
  3494     00D0                     l4120:
  3495                           
  3496                           ;washing_machine_function_def.c: 111:         clcd_putch(sec%10+'0',(0xC0 + 10));
  3497     00D0  30CA               	movlw	202
  3498     00D1  00F8               	movwf	clcd_putch@addr
  3499     00D2  300A               	movlw	10
  3500     00D3  00F2               	movwf	___awmod@divisor
  3501     00D4  3000               	movlw	0
  3502     00D5  00F3               	movwf	___awmod@divisor+1
  3503     00D6  087B               	movf	_sec,w
  3504     00D7  1283               	bcf	3,5	;RP0=0, select bank0
  3505     00D8  1303               	bcf	3,6	;RP1=0, select bank0
  3506     00D9  00D8               	movwf	??_run_program
  3507     00DA  01D9               	clrf	??_run_program+1
  3508     00DB  0858               	movf	??_run_program,w
  3509     00DC  00F4               	movwf	___awmod@dividend
  3510     00DD  0859               	movf	??_run_program+1,w
  3511     00DE  00F5               	movwf	___awmod@dividend+1
  3512     00DF  160A  118A  262B  120A  118A  	fcall	___awmod
  3513     00E4  0872               	movf	?___awmod,w
  3514     00E5  3E30               	addlw	48
  3515     00E6  160A  118A  2458  120A  118A  	fcall	_clcd_putch
  3516     00EB                     l4122:
  3517                           
  3518                           ;washing_machine_function_def.c: 112:         reset_flag = 0xFF;
  3519     00EB  30FF               	movlw	255
  3520     00EC  1683               	bsf	3,5	;RP0=1, select bank1
  3521     00ED  1303               	bcf	3,6	;RP1=0, select bank1
  3522     00EE  00C4               	movwf	_reset_flag^(0+128)
  3523     00EF                     l4124:
  3524                           
  3525                           ;washing_machine_function_def.c: 115:         _delay((unsigned long)((2000)*(20000000/40
      +                          00.0)));
  3526     00EF  3033               	movlw	51
  3527     00F0  1283               	bcf	3,5	;RP0=0, select bank0
  3528     00F1  1303               	bcf	3,6	;RP1=0, select bank0
  3529     00F2  00DA               	movwf	??_run_program+2
  3530     00F3  30BB               	movlw	187
  3531     00F4  00D9               	movwf	??_run_program+1
  3532     00F5  30DF               	movlw	223
  3533     00F6  00D8               	movwf	??_run_program
  3534     00F7                     u5767:
  3535     00F7  0BD8               	decfsz	??_run_program,f
  3536     00F8  28F7               	goto	u5767
  3537     00F9  0BD9               	decfsz	??_run_program+1,f
  3538     00FA  28F7               	goto	u5767
  3539     00FB  0BDA               	decfsz	??_run_program+2,f
  3540     00FC  28F7               	goto	u5767
  3541     00FD                     l4126:
  3542                           
  3543                           ;washing_machine_function_def.c: 117:         clear_screen();
  3544     00FD  160A  118A  2421  120A  118A  	fcall	_clear_screen
  3545     0102                     l4128:
  3546                           
  3547                           ;washing_machine_function_def.c: 118:         clcd_print("Function:",(0x80 + 0));
  3548     0102  30C8               	movlw	low (STR_30| (0+32768))
  3549     0103  1283               	bcf	3,5	;RP0=0, select bank0
  3550     0104  1303               	bcf	3,6	;RP1=0, select bank0
  3551     0105  00A0               	movwf	clcd_print@str
  3552     0106  3090               	movlw	high (STR_30| (0+32768))
  3553     0107  00A1               	movwf	clcd_print@str+1
  3554     0108  3080               	movlw	128
  3555     0109  00A2               	movwf	clcd_print@addr
  3556     010A  160A  118A  2500  120A  118A  	fcall	_clcd_print
  3557     010F                     l4130:
  3558                           
  3559                           ;washing_machine_function_def.c: 119:         clcd_print("Time",(0xC0 + 0));
  3560     010F  3053               	movlw	low (STR_31| (0+32768))
  3561     0110  1283               	bcf	3,5	;RP0=0, select bank0
  3562     0111  1303               	bcf	3,6	;RP1=0, select bank0
  3563     0112  00A0               	movwf	clcd_print@str
  3564     0113  3091               	movlw	high (STR_31| (0+32768))
  3565     0114  00A1               	movwf	clcd_print@str+1
  3566     0115  30C0               	movlw	192
  3567     0116  00A2               	movwf	clcd_print@addr
  3568     0117  160A  118A  2500  120A  118A  	fcall	_clcd_print
  3569     011C                     l4132:
  3570                           
  3571                           ;washing_machine_function_def.c: 120:         clcd_print("SW5:START ",(0x90 + 0));
  3572     011C  309C               	movlw	low (STR_32| (0+32768))
  3573     011D  1283               	bcf	3,5	;RP0=0, select bank0
  3574     011E  1303               	bcf	3,6	;RP1=0, select bank0
  3575     011F  00A0               	movwf	clcd_print@str
  3576     0120  3090               	movlw	high (STR_32| (0+32768))
  3577     0121  00A1               	movwf	clcd_print@str+1
  3578     0122  3090               	movlw	144
  3579     0123  00A2               	movwf	clcd_print@addr
  3580     0124  160A  118A  2500  120A  118A  	fcall	_clcd_print
  3581     0129                     l4134:
  3582                           
  3583                           ;washing_machine_function_def.c: 121:         clcd_print("SW6:PAUSE",(0xD0 + 0));
  3584     0129  30D2               	movlw	low (STR_33| (0+32768))
  3585     012A  1283               	bcf	3,5	;RP0=0, select bank0
  3586     012B  1303               	bcf	3,6	;RP1=0, select bank0
  3587     012C  00A0               	movwf	clcd_print@str
  3588     012D  3090               	movlw	high (STR_33| (0+32768))
  3589     012E  00A1               	movwf	clcd_print@str+1
  3590     012F  30D0               	movlw	208
  3591     0130  00A2               	movwf	clcd_print@addr
  3592     0131  160A  118A  2500  120A  118A  	fcall	_clcd_print
  3593     0136                     l4136:
  3594                           
  3595                           ;washing_machine_function_def.c: 124:         total_time = time = min * 60 + sec;
  3596     0136  303C               	movlw	60
  3597     0137  00F2               	movwf	___bmul@multiplicand
  3598     0138  087A               	movf	_min,w
  3599     0139  160A  118A  2432  120A  118A  	fcall	___bmul
  3600     013E  077B               	addwf	_sec,w
  3601     013F  1683               	bsf	3,5	;RP0=1, select bank1
  3602     0140  1303               	bcf	3,6	;RP1=0, select bank1
  3603     0141  00CA               	movwf	_time^(0+128)
  3604     0142  00F9               	movwf	_total_time
  3605     0143                     l4138:
  3606                           
  3607                           ;washing_machine_function_def.c: 125:         wash_time = (int) total_time*0.46;
  3608     0143  0879               	movf	_total_time,w
  3609     0144  1283               	bcf	3,5	;RP0=0, select bank0
  3610     0145  1303               	bcf	3,6	;RP1=0, select bank0
  3611     0146  00D8               	movwf	??_run_program
  3612     0147  01D9               	clrf	??_run_program+1
  3613     0148  01DA               	clrf	??_run_program+2
  3614     0149  01DB               	clrf	??_run_program+3
  3615     014A  085B               	movf	??_run_program+3,w
  3616     014B  00F5               	movwf	___xxtofl@val+3
  3617     014C  085A               	movf	??_run_program+2,w
  3618     014D  00F4               	movwf	___xxtofl@val+2
  3619     014E  0859               	movf	??_run_program+1,w
  3620     014F  00F3               	movwf	___xxtofl@val+1
  3621     0150  0858               	movf	??_run_program,w
  3622     0151  00F2               	movwf	___xxtofl@val
  3623     0152  3001               	movlw	1
  3624     0153  120A  158A  2118  120A  118A  	fcall	___xxtofl
  3625     0158  0875               	movf	?___xxtofl+3,w
  3626     0159  1283               	bcf	3,5	;RP0=0, select bank0
  3627     015A  1303               	bcf	3,6	;RP1=0, select bank0
  3628     015B  00B1               	movwf	___flmul@a+3
  3629     015C  0874               	movf	?___xxtofl+2,w
  3630     015D  00B0               	movwf	___flmul@a+2
  3631     015E  0873               	movf	?___xxtofl+1,w
  3632     015F  00AF               	movwf	___flmul@a+1
  3633     0160  0872               	movf	?___xxtofl,w
  3634     0161  00AE               	movwf	___flmul@a
  3635     0162  303E               	movlw	62
  3636     0163  00AD               	movwf	___flmul@b+3
  3637     0164  30EB               	movlw	235
  3638     0165  00AC               	movwf	___flmul@b+2
  3639     0166  3085               	movlw	133
  3640     0167  00AB               	movwf	___flmul@b+1
  3641     0168  301F               	movlw	31
  3642     0169  00AA               	movwf	___flmul@b
  3643     016A  120A  118A  2421  120A  118A  	fcall	___flmul
  3644     016F  1283               	bcf	3,5	;RP0=0, select bank0
  3645     0170  1303               	bcf	3,6	;RP1=0, select bank0
  3646     0171  082D               	movf	?___flmul+3,w
  3647     0172  00C7               	movwf	___fltol@f1+3
  3648     0173  082C               	movf	?___flmul+2,w
  3649     0174  00C6               	movwf	___fltol@f1+2
  3650     0175  082B               	movf	?___flmul+1,w
  3651     0176  00C5               	movwf	___fltol@f1+1
  3652     0177  082A               	movf	?___flmul,w
  3653     0178  00C4               	movwf	___fltol@f1
  3654     0179  160A  118A  26E7  120A  118A  	fcall	___fltol
  3655     017E  1283               	bcf	3,5	;RP0=0, select bank0
  3656     017F  1303               	bcf	3,6	;RP1=0, select bank0
  3657     0180  0844               	movf	?___fltol,w
  3658     0181  1683               	bsf	3,5	;RP0=1, select bank1
  3659     0182  1303               	bcf	3,6	;RP1=0, select bank1
  3660     0183  00CD               	movwf	_wash_time^(0+128)
  3661     0184                     l4140:
  3662                           
  3663                           ;washing_machine_function_def.c: 126:         rinse_time = (int) total_time*0.12;
  3664     0184  0879               	movf	_total_time,w
  3665     0185  1283               	bcf	3,5	;RP0=0, select bank0
  3666     0186  1303               	bcf	3,6	;RP1=0, select bank0
  3667     0187  00D8               	movwf	??_run_program
  3668     0188  01D9               	clrf	??_run_program+1
  3669     0189  01DA               	clrf	??_run_program+2
  3670     018A  01DB               	clrf	??_run_program+3
  3671     018B  085B               	movf	??_run_program+3,w
  3672     018C  00F5               	movwf	___xxtofl@val+3
  3673     018D  085A               	movf	??_run_program+2,w
  3674     018E  00F4               	movwf	___xxtofl@val+2
  3675     018F  0859               	movf	??_run_program+1,w
  3676     0190  00F3               	movwf	___xxtofl@val+1
  3677     0191  0858               	movf	??_run_program,w
  3678     0192  00F2               	movwf	___xxtofl@val
  3679     0193  3001               	movlw	1
  3680     0194  120A  158A  2118  120A  118A  	fcall	___xxtofl
  3681     0199  0875               	movf	?___xxtofl+3,w
  3682     019A  1283               	bcf	3,5	;RP0=0, select bank0
  3683     019B  1303               	bcf	3,6	;RP1=0, select bank0
  3684     019C  00B1               	movwf	___flmul@a+3
  3685     019D  0874               	movf	?___xxtofl+2,w
  3686     019E  00B0               	movwf	___flmul@a+2
  3687     019F  0873               	movf	?___xxtofl+1,w
  3688     01A0  00AF               	movwf	___flmul@a+1
  3689     01A1  0872               	movf	?___xxtofl,w
  3690     01A2  00AE               	movwf	___flmul@a
  3691     01A3  303D               	movlw	61
  3692     01A4  00AD               	movwf	___flmul@b+3
  3693     01A5  30F5               	movlw	245
  3694     01A6  00AC               	movwf	___flmul@b+2
  3695     01A7  30C2               	movlw	194
  3696     01A8  00AB               	movwf	___flmul@b+1
  3697     01A9  308F               	movlw	143
  3698     01AA  00AA               	movwf	___flmul@b
  3699     01AB  120A  118A  2421  120A  118A  	fcall	___flmul
  3700     01B0  1283               	bcf	3,5	;RP0=0, select bank0
  3701     01B1  1303               	bcf	3,6	;RP1=0, select bank0
  3702     01B2  082D               	movf	?___flmul+3,w
  3703     01B3  00C7               	movwf	___fltol@f1+3
  3704     01B4  082C               	movf	?___flmul+2,w
  3705     01B5  00C6               	movwf	___fltol@f1+2
  3706     01B6  082B               	movf	?___flmul+1,w
  3707     01B7  00C5               	movwf	___fltol@f1+1
  3708     01B8  082A               	movf	?___flmul,w
  3709     01B9  00C4               	movwf	___fltol@f1
  3710     01BA  160A  118A  26E7  120A  118A  	fcall	___fltol
  3711     01BF  1283               	bcf	3,5	;RP0=0, select bank0
  3712     01C0  1303               	bcf	3,6	;RP1=0, select bank0
  3713     01C1  0844               	movf	?___fltol,w
  3714     01C2  1683               	bsf	3,5	;RP0=1, select bank1
  3715     01C3  1303               	bcf	3,6	;RP1=0, select bank1
  3716     01C4  00CC               	movwf	_rinse_time^(0+128)
  3717     01C5                     l4142:
  3718                           
  3719                           ;washing_machine_function_def.c: 127:         spin_time = (int) total_time*0.42;
  3720     01C5  0879               	movf	_total_time,w
  3721     01C6  1283               	bcf	3,5	;RP0=0, select bank0
  3722     01C7  1303               	bcf	3,6	;RP1=0, select bank0
  3723     01C8  00D8               	movwf	??_run_program
  3724     01C9  01D9               	clrf	??_run_program+1
  3725     01CA  01DA               	clrf	??_run_program+2
  3726     01CB  01DB               	clrf	??_run_program+3
  3727     01CC  085B               	movf	??_run_program+3,w
  3728     01CD  00F5               	movwf	___xxtofl@val+3
  3729     01CE  085A               	movf	??_run_program+2,w
  3730     01CF  00F4               	movwf	___xxtofl@val+2
  3731     01D0  0859               	movf	??_run_program+1,w
  3732     01D1  00F3               	movwf	___xxtofl@val+1
  3733     01D2  0858               	movf	??_run_program,w
  3734     01D3  00F2               	movwf	___xxtofl@val
  3735     01D4  3001               	movlw	1
  3736     01D5  120A  158A  2118  120A  118A  	fcall	___xxtofl
  3737     01DA  0875               	movf	?___xxtofl+3,w
  3738     01DB  1283               	bcf	3,5	;RP0=0, select bank0
  3739     01DC  1303               	bcf	3,6	;RP1=0, select bank0
  3740     01DD  00B1               	movwf	___flmul@a+3
  3741     01DE  0874               	movf	?___xxtofl+2,w
  3742     01DF  00B0               	movwf	___flmul@a+2
  3743     01E0  0873               	movf	?___xxtofl+1,w
  3744     01E1  00AF               	movwf	___flmul@a+1
  3745     01E2  0872               	movf	?___xxtofl,w
  3746     01E3  00AE               	movwf	___flmul@a
  3747     01E4  303E               	movlw	62
  3748     01E5  00AD               	movwf	___flmul@b+3
  3749     01E6  30D7               	movlw	215
  3750     01E7  00AC               	movwf	___flmul@b+2
  3751     01E8  300A               	movlw	10
  3752     01E9  00AB               	movwf	___flmul@b+1
  3753     01EA  303D               	movlw	61
  3754     01EB  00AA               	movwf	___flmul@b
  3755     01EC  120A  118A  2421  120A  118A  	fcall	___flmul
  3756     01F1  1283               	bcf	3,5	;RP0=0, select bank0
  3757     01F2  1303               	bcf	3,6	;RP1=0, select bank0
  3758     01F3  082D               	movf	?___flmul+3,w
  3759     01F4  00C7               	movwf	___fltol@f1+3
  3760     01F5  082C               	movf	?___flmul+2,w
  3761     01F6  00C6               	movwf	___fltol@f1+2
  3762     01F7  082B               	movf	?___flmul+1,w
  3763     01F8  00C5               	movwf	___fltol@f1+1
  3764     01F9  082A               	movf	?___flmul,w
  3765     01FA  00C4               	movwf	___fltol@f1
  3766     01FB  160A  118A  26E7  120A  118A  	fcall	___fltol
  3767     0200  1283               	bcf	3,5	;RP0=0, select bank0
  3768     0201  1303               	bcf	3,6	;RP1=0, select bank0
  3769     0202  0844               	movf	?___fltol,w
  3770     0203  1683               	bsf	3,5	;RP0=1, select bank1
  3771     0204  1303               	bcf	3,6	;RP1=0, select bank1
  3772     0205  00CB               	movwf	_spin_time^(0+128)
  3773     0206                     l4144:
  3774                           
  3775                           ;washing_machine_function_def.c: 130:         TMR2ON = 1;
  3776     0206  1283               	bcf	3,5	;RP0=0, select bank0
  3777     0207  1303               	bcf	3,6	;RP1=0, select bank0
  3778     0208  1512               	bsf	18,2	;volatile
  3779     0209                     l4146:
  3780                           
  3781                           ;washing_machine_function_def.c: 131:         RC2 = 1;
  3782     0209  1507               	bsf	7,2	;volatile
  3783     020A                     l4148:
  3784                           
  3785                           ;washing_machine_function_def.c: 134:     if (key == 0x1F)
  3786     020A  301F               	movlw	31
  3787     020B  1283               	bcf	3,5	;RP0=0, select bank0
  3788     020C  0664               	xorwf	run_program@key,w
  3789     020D  1D03               	btfss	3,2
  3790     020E  2A10               	goto	u5541
  3791     020F  2A11               	goto	u5540
  3792     0210                     u5541:
  3793     0210  2A17               	goto	l4152
  3794     0211                     u5540:
  3795     0211                     l4150:
  3796                           
  3797                           ;washing_machine_function_def.c: 135:     {;washing_machine_function_def.c: 137:        
      +                           TMR2ON = 0;
  3798     0211  1112               	bcf	18,2	;volatile
  3799                           
  3800                           ;washing_machine_function_def.c: 138:         RC2 =0;
  3801     0212  1107               	bcf	7,2	;volatile
  3802                           
  3803                           ;washing_machine_function_def.c: 139:         operational_mode = 0x44;
  3804     0213  3044               	movlw	68
  3805     0214  1683               	bsf	3,5	;RP0=1, select bank1
  3806     0215  1303               	bcf	3,6	;RP1=0, select bank1
  3807     0216  00C5               	movwf	_operational_mode^(0+128)
  3808     0217                     l4152:
  3809                           
  3810                           ;washing_machine_function_def.c: 142:     total_time = min*60+sec;
  3811     0217  303C               	movlw	60
  3812     0218  00F2               	movwf	___bmul@multiplicand
  3813     0219  087A               	movf	_min,w
  3814     021A  160A  118A  2432  120A  118A  	fcall	___bmul
  3815     021F  077B               	addwf	_sec,w
  3816     0220  00F9               	movwf	_total_time
  3817     0221                     l4154:
  3818                           
  3819                           ;washing_machine_function_def.c: 143:     if (program_no <= 7)
  3820     0221  3008               	movlw	8
  3821     0222  1283               	bcf	3,5	;RP0=0, select bank0
  3822     0223  1303               	bcf	3,6	;RP1=0, select bank0
  3823     0224  026A               	subwf	_program_no,w
  3824     0225  1803               	skipnc
  3825     0226  2A28               	goto	u5551
  3826     0227  2A29               	goto	u5550
  3827     0228                     u5551:
  3828     0228  2A98               	goto	l4166
  3829     0229                     u5550:
  3830     0229                     l4156:
  3831                           
  3832                           ;washing_machine_function_def.c: 144:     {;washing_machine_function_def.c: 145:        
      +                           if (total_time>=(time - wash_time))
  3833     0229  1683               	bsf	3,5	;RP0=1, select bank1
  3834     022A  1303               	bcf	3,6	;RP1=0, select bank1
  3835     022B  084A               	movf	_time^(0+128),w
  3836     022C  1283               	bcf	3,5	;RP0=0, select bank0
  3837     022D  1303               	bcf	3,6	;RP1=0, select bank0
  3838     022E  00D8               	movwf	??_run_program
  3839     022F  01D9               	clrf	??_run_program+1
  3840     0230  0859               	movf	??_run_program+1,w
  3841     0231  00DB               	movwf	??_run_program+3
  3842     0232  1683               	bsf	3,5	;RP0=1, select bank1
  3843     0233  1303               	bcf	3,6	;RP1=0, select bank1
  3844     0234  084D               	movf	_wash_time^(0+128),w
  3845     0235  1283               	bcf	3,5	;RP0=0, select bank0
  3846     0236  1303               	bcf	3,6	;RP1=0, select bank0
  3847     0237  0258               	subwf	??_run_program,w
  3848     0238  00DA               	movwf	??_run_program+2
  3849     0239  1C03               	skipc
  3850     023A  03DB               	decf	??_run_program+3,f
  3851     023B  085B               	movf	??_run_program+3,w
  3852     023C  3A80               	xorlw	128
  3853     023D  3C80               	sublw	128
  3854     023E  1D03               	skipz
  3855     023F  2A42               	goto	u5565
  3856     0240  085A               	movf	??_run_program+2,w
  3857     0241  0279               	subwf	_total_time,w
  3858     0242                     u5565:
  3859     0242  1C03               	skipc
  3860     0243  2A45               	goto	u5561
  3861     0244  2A46               	goto	u5560
  3862     0245                     u5561:
  3863     0245  2A54               	goto	l4160
  3864     0246                     u5560:
  3865     0246                     l4158:
  3866                           
  3867                           ;washing_machine_function_def.c: 146:         {;washing_machine_function_def.c: 147:    
      +                                   clcd_print("Wash",(0x80 + 10));
  3868     0246  30B8               	movlw	low ((STR_11+6)| (0+32768))
  3869     0247  1283               	bcf	3,5	;RP0=0, select bank0
  3870     0248  1303               	bcf	3,6	;RP1=0, select bank0
  3871     0249  00A0               	movwf	clcd_print@str
  3872     024A  3090               	movlw	high ((STR_11+6)| (0+32768))
  3873     024B  00A1               	movwf	clcd_print@str+1
  3874     024C  308A               	movlw	138
  3875     024D  00A2               	movwf	clcd_print@addr
  3876     024E  160A  118A  2500  120A  118A  	fcall	_clcd_print
  3877                           
  3878                           ;washing_machine_function_def.c: 148:         }
  3879     0253  2B65               	goto	l4180
  3880     0254                     l4160:
  3881     0254  1683               	bsf	3,5	;RP0=1, select bank1
  3882     0255  1303               	bcf	3,6	;RP1=0, select bank1
  3883     0256  084A               	movf	_time^(0+128),w
  3884     0257  1283               	bcf	3,5	;RP0=0, select bank0
  3885     0258  1303               	bcf	3,6	;RP1=0, select bank0
  3886     0259  00D8               	movwf	??_run_program
  3887     025A  01D9               	clrf	??_run_program+1
  3888     025B  0859               	movf	??_run_program+1,w
  3889     025C  00DB               	movwf	??_run_program+3
  3890     025D  1683               	bsf	3,5	;RP0=1, select bank1
  3891     025E  1303               	bcf	3,6	;RP1=0, select bank1
  3892     025F  084D               	movf	_wash_time^(0+128),w
  3893     0260  1283               	bcf	3,5	;RP0=0, select bank0
  3894     0261  1303               	bcf	3,6	;RP1=0, select bank0
  3895     0262  0258               	subwf	??_run_program,w
  3896     0263  00DA               	movwf	??_run_program+2
  3897     0264  1C03               	skipc
  3898     0265  03DB               	decf	??_run_program+3,f
  3899     0266  085B               	movf	??_run_program+3,w
  3900     0267  00DD               	movwf	??_run_program+5
  3901     0268  1683               	bsf	3,5	;RP0=1, select bank1
  3902     0269  1303               	bcf	3,6	;RP1=0, select bank1
  3903     026A  084B               	movf	_spin_time^(0+128),w
  3904     026B  1283               	bcf	3,5	;RP0=0, select bank0
  3905     026C  1303               	bcf	3,6	;RP1=0, select bank0
  3906     026D  025A               	subwf	??_run_program+2,w
  3907     026E  00DC               	movwf	??_run_program+4
  3908     026F  1C03               	skipc
  3909     0270  03DD               	decf	??_run_program+5,f
  3910     0271  085D               	movf	??_run_program+5,w
  3911     0272  3A80               	xorlw	128
  3912     0273  3C80               	sublw	128
  3913     0274  1D03               	skipz
  3914     0275  2A78               	goto	u5575
  3915     0276  085C               	movf	??_run_program+4,w
  3916     0277  0279               	subwf	_total_time,w
  3917     0278                     u5575:
  3918     0278  1C03               	skipc
  3919     0279  2A7B               	goto	u5571
  3920     027A  2A7C               	goto	u5570
  3921     027B                     u5571:
  3922     027B  2A8A               	goto	l4164
  3923     027C                     u5570:
  3924     027C                     l4162:
  3925                           
  3926                           ;washing_machine_function_def.c: 150:         {;washing_machine_function_def.c: 151:    
      +                                   clcd_print("Rinse",(0x80 + 10));
  3927     027C  3041               	movlw	low (STR_35| (0+32768))
  3928     027D  1283               	bcf	3,5	;RP0=0, select bank0
  3929     027E  1303               	bcf	3,6	;RP1=0, select bank0
  3930     027F  00A0               	movwf	clcd_print@str
  3931     0280  3091               	movlw	high (STR_35| (0+32768))
  3932     0281  00A1               	movwf	clcd_print@str+1
  3933     0282  308A               	movlw	138
  3934     0283  00A2               	movwf	clcd_print@addr
  3935     0284  160A  118A  2500  120A  118A  	fcall	_clcd_print
  3936                           
  3937                           ;washing_machine_function_def.c: 152:         }
  3938     0289  2B65               	goto	l4180
  3939     028A                     l4164:
  3940                           
  3941                           ;washing_machine_function_def.c: 154:         {;washing_machine_function_def.c: 155:    
      +                                   clcd_print("Spin",(0x80 + 10));
  3942     028A  305D               	movlw	low (STR_36| (0+32768))
  3943     028B  1283               	bcf	3,5	;RP0=0, select bank0
  3944     028C  1303               	bcf	3,6	;RP1=0, select bank0
  3945     028D  00A0               	movwf	clcd_print@str
  3946     028E  3091               	movlw	high (STR_36| (0+32768))
  3947     028F  00A1               	movwf	clcd_print@str+1
  3948     0290  308A               	movlw	138
  3949     0291  00A2               	movwf	clcd_print@addr
  3950     0292  160A  118A  2500  120A  118A  	fcall	_clcd_print
  3951     0297  2B65               	goto	l4180
  3952     0298                     l4166:
  3953     0298  3008               	movlw	8
  3954     0299  066A               	xorwf	_program_no,w
  3955     029A  1D03               	btfss	3,2
  3956     029B  2A9D               	goto	u5581
  3957     029C  2A9E               	goto	u5580
  3958     029D                     u5581:
  3959     029D  2B48               	goto	l4174
  3960     029E                     u5580:
  3961     029E                     l4168:
  3962                           
  3963                           ;washing_machine_function_def.c: 160:     {;washing_machine_function_def.c: 161:        
      +                           if (total_time >= (time - (0.4*time)))
  3964     029E  0879               	movf	_total_time,w
  3965     029F  00D8               	movwf	??_run_program
  3966     02A0  01D9               	clrf	??_run_program+1
  3967     02A1  01DA               	clrf	??_run_program+2
  3968     02A2  01DB               	clrf	??_run_program+3
  3969     02A3  085B               	movf	??_run_program+3,w
  3970     02A4  00F5               	movwf	___xxtofl@val+3
  3971     02A5  085A               	movf	??_run_program+2,w
  3972     02A6  00F4               	movwf	___xxtofl@val+2
  3973     02A7  0859               	movf	??_run_program+1,w
  3974     02A8  00F3               	movwf	___xxtofl@val+1
  3975     02A9  0858               	movf	??_run_program,w
  3976     02AA  00F2               	movwf	___xxtofl@val
  3977     02AB  3001               	movlw	1
  3978     02AC  120A  158A  2118  120A  118A  	fcall	___xxtofl
  3979     02B1  0875               	movf	?___xxtofl+3,w
  3980     02B2  1283               	bcf	3,5	;RP0=0, select bank0
  3981     02B3  1303               	bcf	3,6	;RP1=0, select bank0
  3982     02B4  00CF               	movwf	___flge@ff1+3
  3983     02B5  0874               	movf	?___xxtofl+2,w
  3984     02B6  00CE               	movwf	___flge@ff1+2
  3985     02B7  0873               	movf	?___xxtofl+1,w
  3986     02B8  00CD               	movwf	___flge@ff1+1
  3987     02B9  0872               	movf	?___xxtofl,w
  3988     02BA  00CC               	movwf	___flge@ff1
  3989     02BB  1683               	bsf	3,5	;RP0=1, select bank1
  3990     02BC  1303               	bcf	3,6	;RP1=0, select bank1
  3991     02BD  084A               	movf	_time^(0+128),w
  3992     02BE  1283               	bcf	3,5	;RP0=0, select bank0
  3993     02BF  1303               	bcf	3,6	;RP1=0, select bank0
  3994     02C0  00DC               	movwf	??_run_program+4
  3995     02C1  01DD               	clrf	??_run_program+5
  3996     02C2  01DE               	clrf	??_run_program+6
  3997     02C3  01DF               	clrf	??_run_program+7
  3998     02C4  085F               	movf	??_run_program+7,w
  3999     02C5  00F5               	movwf	___xxtofl@val+3
  4000     02C6  085E               	movf	??_run_program+6,w
  4001     02C7  00F4               	movwf	___xxtofl@val+2
  4002     02C8  085D               	movf	??_run_program+5,w
  4003     02C9  00F3               	movwf	___xxtofl@val+1
  4004     02CA  085C               	movf	??_run_program+4,w
  4005     02CB  00F2               	movwf	___xxtofl@val
  4006     02CC  3001               	movlw	1
  4007     02CD  120A  158A  2118  120A  118A  	fcall	___xxtofl
  4008     02D2  0875               	movf	?___xxtofl+3,w
  4009     02D3  1283               	bcf	3,5	;RP0=0, select bank0
  4010     02D4  1303               	bcf	3,6	;RP1=0, select bank0
  4011     02D5  00CB               	movwf	___flsub@b+3
  4012     02D6  0874               	movf	?___xxtofl+2,w
  4013     02D7  00CA               	movwf	___flsub@b+2
  4014     02D8  0873               	movf	?___xxtofl+1,w
  4015     02D9  00C9               	movwf	___flsub@b+1
  4016     02DA  0872               	movf	?___xxtofl,w
  4017     02DB  00C8               	movwf	___flsub@b
  4018     02DC  1683               	bsf	3,5	;RP0=1, select bank1
  4019     02DD  1303               	bcf	3,6	;RP1=0, select bank1
  4020     02DE  084A               	movf	_time^(0+128),w
  4021     02DF  1283               	bcf	3,5	;RP0=0, select bank0
  4022     02E0  1303               	bcf	3,6	;RP1=0, select bank0
  4023     02E1  00E0               	movwf	??_run_program+8
  4024     02E2  01E1               	clrf	??_run_program+9
  4025     02E3  01E2               	clrf	??_run_program+10
  4026     02E4  01E3               	clrf	??_run_program+11
  4027     02E5  0863               	movf	??_run_program+11,w
  4028     02E6  00F5               	movwf	___xxtofl@val+3
  4029     02E7  0862               	movf	??_run_program+10,w
  4030     02E8  00F4               	movwf	___xxtofl@val+2
  4031     02E9  0861               	movf	??_run_program+9,w
  4032     02EA  00F3               	movwf	___xxtofl@val+1
  4033     02EB  0860               	movf	??_run_program+8,w
  4034     02EC  00F2               	movwf	___xxtofl@val
  4035     02ED  3001               	movlw	1
  4036     02EE  120A  158A  2118  120A  118A  	fcall	___xxtofl
  4037     02F3  0875               	movf	?___xxtofl+3,w
  4038     02F4  1283               	bcf	3,5	;RP0=0, select bank0
  4039     02F5  1303               	bcf	3,6	;RP1=0, select bank0
  4040     02F6  00B1               	movwf	___flmul@a+3
  4041     02F7  0874               	movf	?___xxtofl+2,w
  4042     02F8  00B0               	movwf	___flmul@a+2
  4043     02F9  0873               	movf	?___xxtofl+1,w
  4044     02FA  00AF               	movwf	___flmul@a+1
  4045     02FB  0872               	movf	?___xxtofl,w
  4046     02FC  00AE               	movwf	___flmul@a
  4047     02FD  303E               	movlw	62
  4048     02FE  00AD               	movwf	___flmul@b+3
  4049     02FF  30CC               	movlw	204
  4050     0300  00AC               	movwf	___flmul@b+2
  4051     0301  30CC               	movlw	204
  4052     0302  00AB               	movwf	___flmul@b+1
  4053     0303  30CD               	movlw	205
  4054     0304  00AA               	movwf	___flmul@b
  4055     0305  120A  118A  2421  120A  118A  	fcall	___flmul
  4056     030A  1283               	bcf	3,5	;RP0=0, select bank0
  4057     030B  1303               	bcf	3,6	;RP1=0, select bank0
  4058     030C  082D               	movf	?___flmul+3,w
  4059     030D  00C7               	movwf	___flsub@a+3
  4060     030E  082C               	movf	?___flmul+2,w
  4061     030F  00C6               	movwf	___flsub@a+2
  4062     0310  082B               	movf	?___flmul+1,w
  4063     0311  00C5               	movwf	___flsub@a+1
  4064     0312  082A               	movf	?___flmul,w
  4065     0313  00C4               	movwf	___flsub@a
  4066     0314  160A  118A  248D  120A  118A  	fcall	___flsub
  4067     0319  1283               	bcf	3,5	;RP0=0, select bank0
  4068     031A  1303               	bcf	3,6	;RP1=0, select bank0
  4069     031B  0847               	movf	?___flsub+3,w
  4070     031C  00D3               	movwf	___flge@ff2+3
  4071     031D  0846               	movf	?___flsub+2,w
  4072     031E  00D2               	movwf	___flge@ff2+2
  4073     031F  0845               	movf	?___flsub+1,w
  4074     0320  00D1               	movwf	___flge@ff2+1
  4075     0321  0844               	movf	?___flsub,w
  4076     0322  00D0               	movwf	___flge@ff2
  4077     0323  120A  158A  2074  120A  118A  	fcall	___flge
  4078     0328  1C03               	btfss	3,0
  4079     0329  2B2B               	goto	u5591
  4080     032A  2B2C               	goto	u5590
  4081     032B                     u5591:
  4082     032B  2B3A               	goto	l4172
  4083     032C                     u5590:
  4084     032C                     l4170:
  4085                           
  4086                           ;washing_machine_function_def.c: 162:         {;washing_machine_function_def.c: 163:    
      +                                   clcd_print("Rinse",(0x80 + 10));
  4087     032C  3041               	movlw	low (STR_35| (0+32768))
  4088     032D  1283               	bcf	3,5	;RP0=0, select bank0
  4089     032E  1303               	bcf	3,6	;RP1=0, select bank0
  4090     032F  00A0               	movwf	clcd_print@str
  4091     0330  3091               	movlw	high (STR_35| (0+32768))
  4092     0331  00A1               	movwf	clcd_print@str+1
  4093     0332  308A               	movlw	138
  4094     0333  00A2               	movwf	clcd_print@addr
  4095     0334  160A  118A  2500  120A  118A  	fcall	_clcd_print
  4096                           
  4097                           ;washing_machine_function_def.c: 164:         }
  4098     0339  2B65               	goto	l4180
  4099     033A                     l4172:
  4100                           
  4101                           ;washing_machine_function_def.c: 166:         {;washing_machine_function_def.c: 167:    
      +                                   clcd_print("Spin",(0x80 + 10));
  4102     033A  305D               	movlw	low (STR_36| (0+32768))
  4103     033B  1283               	bcf	3,5	;RP0=0, select bank0
  4104     033C  1303               	bcf	3,6	;RP1=0, select bank0
  4105     033D  00A0               	movwf	clcd_print@str
  4106     033E  3091               	movlw	high (STR_36| (0+32768))
  4107     033F  00A1               	movwf	clcd_print@str+1
  4108     0340  308A               	movlw	138
  4109     0341  00A2               	movwf	clcd_print@addr
  4110     0342  160A  118A  2500  120A  118A  	fcall	_clcd_print
  4111     0347  2B65               	goto	l4180
  4112     0348                     l4174:
  4113     0348  3009               	movlw	9
  4114     0349  066A               	xorwf	_program_no,w
  4115     034A  1D03               	btfss	3,2
  4116     034B  2B4D               	goto	u5601
  4117     034C  2B4E               	goto	u5600
  4118     034D                     u5601:
  4119     034D  2B5A               	goto	l4178
  4120     034E                     u5600:
  4121     034E                     l4176:
  4122                           
  4123                           ;washing_machine_function_def.c: 172:         {;washing_machine_function_def.c: 173:    
      +                                   clcd_print("Spin",(0x80 + 10));
  4124     034E  305D               	movlw	low (STR_36| (0+32768))
  4125     034F  00A0               	movwf	clcd_print@str
  4126     0350  3091               	movlw	high (STR_36| (0+32768))
  4127     0351  00A1               	movwf	clcd_print@str+1
  4128     0352  308A               	movlw	138
  4129     0353  00A2               	movwf	clcd_print@addr
  4130     0354  160A  118A  2500  120A  118A  	fcall	_clcd_print
  4131                           
  4132                           ;washing_machine_function_def.c: 174:         }
  4133     0359  2B65               	goto	l4180
  4134     035A                     l4178:
  4135                           
  4136                           ;washing_machine_function_def.c: 176:     {;washing_machine_function_def.c: 177:        
      +                           clcd_print("Wash",(0x80 + 10));
  4137     035A  30B8               	movlw	low ((STR_11+6)| (0+32768))
  4138     035B  00A0               	movwf	clcd_print@str
  4139     035C  3090               	movlw	high ((STR_11+6)| (0+32768))
  4140     035D  00A1               	movwf	clcd_print@str+1
  4141     035E  308A               	movlw	138
  4142     035F  00A2               	movwf	clcd_print@addr
  4143     0360  160A  118A  2500  120A  118A  	fcall	_clcd_print
  4144     0365                     l4180:
  4145                           
  4146                           ;washing_machine_function_def.c: 180:     clcd_putch(min/10+'0',(0xC0 + 6));
  4147     0365  30C6               	movlw	198
  4148     0366  00F8               	movwf	clcd_putch@addr
  4149     0367  300A               	movlw	10
  4150     0368  00F2               	movwf	___awdiv@divisor
  4151     0369  3000               	movlw	0
  4152     036A  00F3               	movwf	___awdiv@divisor+1
  4153     036B  087A               	movf	_min,w
  4154     036C  1283               	bcf	3,5	;RP0=0, select bank0
  4155     036D  1303               	bcf	3,6	;RP1=0, select bank0
  4156     036E  00D8               	movwf	??_run_program
  4157     036F  01D9               	clrf	??_run_program+1
  4158     0370  0858               	movf	??_run_program,w
  4159     0371  00F4               	movwf	___awdiv@dividend
  4160     0372  0859               	movf	??_run_program+1,w
  4161     0373  00F5               	movwf	___awdiv@dividend+1
  4162     0374  160A  118A  2682  120A  118A  	fcall	___awdiv
  4163     0379  0872               	movf	?___awdiv,w
  4164     037A  3E30               	addlw	48
  4165     037B  160A  118A  2458  120A  118A  	fcall	_clcd_putch
  4166     0380                     l4182:
  4167                           
  4168                           ;washing_machine_function_def.c: 181:         clcd_putch(min%10+'0',(0xC0 + 7));
  4169     0380  30C7               	movlw	199
  4170     0381  00F8               	movwf	clcd_putch@addr
  4171     0382  300A               	movlw	10
  4172     0383  00F2               	movwf	___awmod@divisor
  4173     0384  3000               	movlw	0
  4174     0385  00F3               	movwf	___awmod@divisor+1
  4175     0386  087A               	movf	_min,w
  4176     0387  1283               	bcf	3,5	;RP0=0, select bank0
  4177     0388  1303               	bcf	3,6	;RP1=0, select bank0
  4178     0389  00D8               	movwf	??_run_program
  4179     038A  01D9               	clrf	??_run_program+1
  4180     038B  0858               	movf	??_run_program,w
  4181     038C  00F4               	movwf	___awmod@dividend
  4182     038D  0859               	movf	??_run_program+1,w
  4183     038E  00F5               	movwf	___awmod@dividend+1
  4184     038F  160A  118A  262B  120A  118A  	fcall	___awmod
  4185     0394  0872               	movf	?___awmod,w
  4186     0395  3E30               	addlw	48
  4187     0396  160A  118A  2458  120A  118A  	fcall	_clcd_putch
  4188     039B                     l4184:
  4189                           
  4190                           ;washing_machine_function_def.c: 182:         clcd_putch(':',(0xC0 + 8));
  4191     039B  30C8               	movlw	200
  4192     039C  00F8               	movwf	clcd_putch@addr
  4193     039D  303A               	movlw	58
  4194     039E  160A  118A  2458  120A  118A  	fcall	_clcd_putch
  4195     03A3                     l4186:
  4196                           
  4197                           ;washing_machine_function_def.c: 183:         clcd_putch(sec/10+'0',(0xC0 + 9));
  4198     03A3  30C9               	movlw	201
  4199     03A4  00F8               	movwf	clcd_putch@addr
  4200     03A5  300A               	movlw	10
  4201     03A6  00F2               	movwf	___awdiv@divisor
  4202     03A7  3000               	movlw	0
  4203     03A8  00F3               	movwf	___awdiv@divisor+1
  4204     03A9  087B               	movf	_sec,w
  4205     03AA  1283               	bcf	3,5	;RP0=0, select bank0
  4206     03AB  1303               	bcf	3,6	;RP1=0, select bank0
  4207     03AC  00D8               	movwf	??_run_program
  4208     03AD  01D9               	clrf	??_run_program+1
  4209     03AE  0858               	movf	??_run_program,w
  4210     03AF  00F4               	movwf	___awdiv@dividend
  4211     03B0  0859               	movf	??_run_program+1,w
  4212     03B1  00F5               	movwf	___awdiv@dividend+1
  4213     03B2  160A  118A  2682  120A  118A  	fcall	___awdiv
  4214     03B7  0872               	movf	?___awdiv,w
  4215     03B8  3E30               	addlw	48
  4216     03B9  160A  118A  2458  120A  118A  	fcall	_clcd_putch
  4217     03BE                     l4188:
  4218                           
  4219                           ;washing_machine_function_def.c: 184:         clcd_putch(sec%10+'0',(0xC0 + 10));
  4220     03BE  30CA               	movlw	202
  4221     03BF  00F8               	movwf	clcd_putch@addr
  4222     03C0  300A               	movlw	10
  4223     03C1  00F2               	movwf	___awmod@divisor
  4224     03C2  3000               	movlw	0
  4225     03C3  00F3               	movwf	___awmod@divisor+1
  4226     03C4  087B               	movf	_sec,w
  4227     03C5  1283               	bcf	3,5	;RP0=0, select bank0
  4228     03C6  1303               	bcf	3,6	;RP1=0, select bank0
  4229     03C7  00D8               	movwf	??_run_program
  4230     03C8  01D9               	clrf	??_run_program+1
  4231     03C9  0858               	movf	??_run_program,w
  4232     03CA  00F4               	movwf	___awmod@dividend
  4233     03CB  0859               	movf	??_run_program+1,w
  4234     03CC  00F5               	movwf	___awmod@dividend+1
  4235     03CD  160A  118A  262B  120A  118A  	fcall	___awmod
  4236     03D2  0872               	movf	?___awmod,w
  4237     03D3  3E30               	addlw	48
  4238     03D4  160A  118A  2458  120A  118A  	fcall	_clcd_putch
  4239     03D9                     l4190:
  4240                           
  4241                           ;washing_machine_function_def.c: 185:         if(min == 0 && sec == 0)
  4242     03D9  087A               	movf	_min,w
  4243     03DA  1D03               	btfss	3,2
  4244     03DB  2BDD               	goto	u5611
  4245     03DC  2BDE               	goto	u5610
  4246     03DD                     u5611:
  4247     03DD  2C20               	goto	l247
  4248     03DE                     u5610:
  4249     03DE                     l4192:
  4250     03DE  087B               	movf	_sec,w
  4251     03DF  1D03               	btfss	3,2
  4252     03E0  2BE2               	goto	u5621
  4253     03E1  2BE3               	goto	u5620
  4254     03E2                     u5621:
  4255     03E2  2C20               	goto	l247
  4256     03E3                     u5620:
  4257     03E3                     l4194:
  4258                           
  4259                           ;washing_machine_function_def.c: 186:         {;washing_machine_function_def.c: 187:    
      +                                   clear_screen();
  4260     03E3  160A  118A  2421  120A  118A  	fcall	_clear_screen
  4261     03E8                     l4196:
  4262                           
  4263                           ;washing_machine_function_def.c: 188:             RC2 = 0;
  4264     03E8  1283               	bcf	3,5	;RP0=0, select bank0
  4265     03E9  1303               	bcf	3,6	;RP1=0, select bank0
  4266     03EA  1107               	bcf	7,2	;volatile
  4267     03EB                     l4198:
  4268                           
  4269                           ;washing_machine_function_def.c: 189:             RC1 = 1;
  4270     03EB  1487               	bsf	7,1	;volatile
  4271     03EC                     l4200:
  4272                           
  4273                           ;washing_machine_function_def.c: 190:             clcd_print("Program Complete",(0x80 + 
      +                          0));
  4274     03EC  3000               	movlw	low (STR_41| (0+32768))
  4275     03ED  00A0               	movwf	clcd_print@str
  4276     03EE  3090               	movlw	high (STR_41| (0+32768))
  4277     03EF  00A1               	movwf	clcd_print@str+1
  4278     03F0  3080               	movlw	128
  4279     03F1  00A2               	movwf	clcd_print@addr
  4280     03F2  160A  118A  2500  120A  118A  	fcall	_clcd_print
  4281     03F7                     l4202:
  4282                           
  4283                           ;washing_machine_function_def.c: 191:             clcd_print("Remove Clothes",(0xC0 + 0)
      +                          );
  4284     03F7  3040               	movlw	low (STR_42| (0+32768))
  4285     03F8  1283               	bcf	3,5	;RP0=0, select bank0
  4286     03F9  1303               	bcf	3,6	;RP1=0, select bank0
  4287     03FA  00A0               	movwf	clcd_print@str
  4288     03FB  3090               	movlw	high (STR_42| (0+32768))
  4289     03FC  00A1               	movwf	clcd_print@str+1
  4290     03FD  30C0               	movlw	192
  4291     03FE  00A2               	movwf	clcd_print@addr
  4292     03FF  160A  118A  2500  120A  118A  	fcall	_clcd_print
  4293     0404                     l4204:
  4294                           
  4295                           ;washing_machine_function_def.c: 192:             _delay((unsigned long)((3000)*(2000000
      +                          0/4000.0)));
  4296     0404  304D               	movlw	77
  4297     0405  1283               	bcf	3,5	;RP0=0, select bank0
  4298     0406  1303               	bcf	3,6	;RP1=0, select bank0
  4299     0407  00DA               	movwf	??_run_program+2
  4300     0408  3019               	movlw	25
  4301     0409  00D9               	movwf	??_run_program+1
  4302     040A  304F               	movlw	79
  4303     040B  00D8               	movwf	??_run_program
  4304     040C                     u5777:
  4305     040C  0BD8               	decfsz	??_run_program,f
  4306     040D  2C0C               	goto	u5777
  4307     040E  0BD9               	decfsz	??_run_program+1,f
  4308     040F  2C0C               	goto	u5777
  4309     0410  0BDA               	decfsz	??_run_program+2,f
  4310     0411  2C0C               	goto	u5777
  4311     0412                     l4206:
  4312                           
  4313                           ;washing_machine_function_def.c: 193:             RC1 = 0;
  4314     0412  1283               	bcf	3,5	;RP0=0, select bank0
  4315     0413  1303               	bcf	3,6	;RP1=0, select bank0
  4316     0414  1087               	bcf	7,1	;volatile
  4317     0415                     l4208:
  4318                           
  4319                           ;washing_machine_function_def.c: 194:              operational_mode = 0x01;
  4320     0415  3001               	movlw	1
  4321     0416  1683               	bsf	3,5	;RP0=1, select bank1
  4322     0417  1303               	bcf	3,6	;RP1=0, select bank1
  4323     0418  00C5               	movwf	_operational_mode^(0+128)
  4324     0419                     l4210:
  4325                           
  4326                           ;washing_machine_function_def.c: 195:              reset_flag = 0x11;
  4327     0419  3011               	movlw	17
  4328     041A  00C4               	movwf	_reset_flag^(0+128)
  4329     041B                     l4212:
  4330                           
  4331                           ;washing_machine_function_def.c: 196:              clear_screen();
  4332     041B  160A  118A  2421  120A  118A  	fcall	_clear_screen
  4333     0420                     l247:
  4334     0420  0008               	return
  4335     0421                     __end_of_run_program:
  4336                           
  4337                           	psect	text5
  4338     0809                     __ptext5:	
  4339 ;; *************** function _door_status_check *****************
  4340 ;; Defined at:
  4341 ;;		line 417 in file "washing_machine_function_def.c"
  4342 ;; Parameters:    Size  Location     Type
  4343 ;;		None
  4344 ;; Auto vars:     Size  Location     Type
  4345 ;;		None
  4346 ;; Return value:  Size  Location     Type
  4347 ;;                  1    wreg      void 
  4348 ;; Registers used:
  4349 ;;		wreg, fsr0l, fsr0h, status,2, status,0, btemp+1, pclath, cstack
  4350 ;; Tracked objects:
  4351 ;;		On entry : 0/0
  4352 ;;		On exit  : 0/0
  4353 ;;		Unchanged: 0/0
  4354 ;; Data sizes:     COMMON   BANK0   BANK1   BANK3   BANK2
  4355 ;;      Params:         0       0       0       0       0
  4356 ;;      Locals:         0       0       0       0       0
  4357 ;;      Temps:          0       0       0       0       0
  4358 ;;      Totals:         0       0       0       0       0
  4359 ;;Total ram usage:        0 bytes
  4360 ;; Hardware stack levels used: 1
  4361 ;; Hardware stack levels required when called: 3
  4362 ;; This function calls:
  4363 ;;		_clcd_print
  4364 ;;		_clear_screen
  4365 ;; This function is called by:
  4366 ;;		_run_program
  4367 ;; This function uses a non-reentrant model
  4368 ;;
  4369                           
  4370     0809                     _door_status_check:	
  4371                           ;psect for function _door_status_check
  4372                           
  4373     0809                     l3214:	
  4374                           ;incstack = 0
  4375                           ; Regs used in _door_status_check: [wreg-fsr0h+status,2+status,0+btemp+1+pclath+cstack]
  4376                           
  4377                           
  4378                           ;washing_machine_function_def.c: 419:     if(RB0 == 0)
  4379     0809  1283               	bcf	3,5	;RP0=0, select bank0
  4380     080A  1303               	bcf	3,6	;RP1=0, select bank0
  4381     080B  1806               	btfsc	6,0	;volatile
  4382     080C  280E               	goto	u4081
  4383     080D  280F               	goto	u4080
  4384     080E                     u4081:
  4385     080E  2873               	goto	l355
  4386     080F                     u4080:
  4387     080F                     l3216:
  4388                           
  4389                           ;washing_machine_function_def.c: 420:     {;washing_machine_function_def.c: 421:        
      +                           RC2 = 0;
  4390     080F  1107               	bcf	7,2	;volatile
  4391                           
  4392                           ;washing_machine_function_def.c: 422:         TMR2ON = 0;
  4393     0810  1112               	bcf	18,2	;volatile
  4394                           
  4395                           ;washing_machine_function_def.c: 423:         RC1 = 1;
  4396     0811  1487               	bsf	7,1	;volatile
  4397     0812                     l3218:
  4398                           
  4399                           ;washing_machine_function_def.c: 424:         clear_screen();
  4400     0812  160A  118A  2421  120A  158A  	fcall	_clear_screen
  4401     0817                     l3220:
  4402                           
  4403                           ;washing_machine_function_def.c: 425:         clcd_print("Door is Open",(0x80 + 0));
  4404     0817  306A               	movlw	low (STR_43| (0+32768))
  4405     0818  1283               	bcf	3,5	;RP0=0, select bank0
  4406     0819  1303               	bcf	3,6	;RP1=0, select bank0
  4407     081A  00A0               	movwf	clcd_print@str
  4408     081B  3090               	movlw	high (STR_43| (0+32768))
  4409     081C  00A1               	movwf	clcd_print@str+1
  4410     081D  3080               	movlw	128
  4411     081E  00A2               	movwf	clcd_print@addr
  4412     081F  160A  118A  2500  120A  158A  	fcall	_clcd_print
  4413     0824                     l3222:
  4414                           
  4415                           ;washing_machine_function_def.c: 426:         clcd_print("Pls Close Door",(0xC0 + 0));
  4416     0824  3031               	movlw	low (STR_44| (0+32768))
  4417     0825  1283               	bcf	3,5	;RP0=0, select bank0
  4418     0826  1303               	bcf	3,6	;RP1=0, select bank0
  4419     0827  00A0               	movwf	clcd_print@str
  4420     0828  3090               	movlw	high (STR_44| (0+32768))
  4421     0829  00A1               	movwf	clcd_print@str+1
  4422     082A  30C0               	movlw	192
  4423     082B  00A2               	movwf	clcd_print@addr
  4424     082C  160A  118A  2500  120A  158A  	fcall	_clcd_print
  4425     0831                     l352:	
  4426                           ;washing_machine_function_def.c: 429:         {;washing_machine_function_def.c: 432:    
      +                               }
  4427                           
  4428                           
  4429                           ;washing_machine_function_def.c: 428:         while (RB0 == 0)
  4430     0831  1283               	bcf	3,5	;RP0=0, select bank0
  4431     0832  1303               	bcf	3,6	;RP1=0, select bank0
  4432     0833  1C06               	btfss	6,0	;volatile
  4433     0834  2836               	goto	u4091
  4434     0835  2837               	goto	u4090
  4435     0836                     u4091:
  4436     0836  2831               	goto	l352
  4437     0837                     u4090:
  4438     0837                     l354:
  4439                           
  4440                           ;washing_machine_function_def.c: 433:          RC2 = 1;
  4441     0837  1507               	bsf	7,2	;volatile
  4442                           
  4443                           ;washing_machine_function_def.c: 434:         TMR2ON = 1;
  4444     0838  1512               	bsf	18,2	;volatile
  4445                           
  4446                           ;washing_machine_function_def.c: 435:         RC1 = 0;
  4447     0839  1087               	bcf	7,1	;volatile
  4448     083A                     l3224:
  4449                           
  4450                           ;washing_machine_function_def.c: 436:         clear_screen();
  4451     083A  160A  118A  2421  120A  158A  	fcall	_clear_screen
  4452     083F                     l3226:
  4453                           
  4454                           ;washing_machine_function_def.c: 437:         clcd_print("Function:",(0x80 + 0));
  4455     083F  30C8               	movlw	low (STR_30| (0+32768))
  4456     0840  1283               	bcf	3,5	;RP0=0, select bank0
  4457     0841  1303               	bcf	3,6	;RP1=0, select bank0
  4458     0842  00A0               	movwf	clcd_print@str
  4459     0843  3090               	movlw	high (STR_30| (0+32768))
  4460     0844  00A1               	movwf	clcd_print@str+1
  4461     0845  3080               	movlw	128
  4462     0846  00A2               	movwf	clcd_print@addr
  4463     0847  160A  118A  2500  120A  158A  	fcall	_clcd_print
  4464     084C                     l3228:
  4465                           
  4466                           ;washing_machine_function_def.c: 438:         clcd_print("Time",(0xC0 + 0));
  4467     084C  3053               	movlw	low (STR_31| (0+32768))
  4468     084D  1283               	bcf	3,5	;RP0=0, select bank0
  4469     084E  1303               	bcf	3,6	;RP1=0, select bank0
  4470     084F  00A0               	movwf	clcd_print@str
  4471     0850  3091               	movlw	high (STR_31| (0+32768))
  4472     0851  00A1               	movwf	clcd_print@str+1
  4473     0852  30C0               	movlw	192
  4474     0853  00A2               	movwf	clcd_print@addr
  4475     0854  160A  118A  2500  120A  158A  	fcall	_clcd_print
  4476     0859                     l3230:
  4477                           
  4478                           ;washing_machine_function_def.c: 439:         clcd_print("SW5:START ",(0x90 + 0));
  4479     0859  309C               	movlw	low (STR_32| (0+32768))
  4480     085A  1283               	bcf	3,5	;RP0=0, select bank0
  4481     085B  1303               	bcf	3,6	;RP1=0, select bank0
  4482     085C  00A0               	movwf	clcd_print@str
  4483     085D  3090               	movlw	high (STR_32| (0+32768))
  4484     085E  00A1               	movwf	clcd_print@str+1
  4485     085F  3090               	movlw	144
  4486     0860  00A2               	movwf	clcd_print@addr
  4487     0861  160A  118A  2500  120A  158A  	fcall	_clcd_print
  4488     0866                     l3232:
  4489                           
  4490                           ;washing_machine_function_def.c: 440:         clcd_print("SW6:PAUSE",(0xD0 + 0));
  4491     0866  30D2               	movlw	low (STR_33| (0+32768))
  4492     0867  1283               	bcf	3,5	;RP0=0, select bank0
  4493     0868  1303               	bcf	3,6	;RP1=0, select bank0
  4494     0869  00A0               	movwf	clcd_print@str
  4495     086A  3090               	movlw	high (STR_33| (0+32768))
  4496     086B  00A1               	movwf	clcd_print@str+1
  4497     086C  30D0               	movlw	208
  4498     086D  00A2               	movwf	clcd_print@addr
  4499     086E  160A  118A  2500  120A  158A  	fcall	_clcd_print
  4500     0873                     l355:
  4501     0873  0008               	return
  4502     0874                     __end_of_door_status_check:
  4503                           
  4504                           	psect	text6
  4505     1421                     __ptext6:	
  4506 ;; *************** function _clear_screen *****************
  4507 ;; Defined at:
  4508 ;;		line 445 in file "washing_machine_function_def.c"
  4509 ;; Parameters:    Size  Location     Type
  4510 ;;		None
  4511 ;; Auto vars:     Size  Location     Type
  4512 ;;		None
  4513 ;; Return value:  Size  Location     Type
  4514 ;;                  1    wreg      void 
  4515 ;; Registers used:
  4516 ;;		wreg, status,2, status,0, pclath, cstack
  4517 ;; Tracked objects:
  4518 ;;		On entry : 0/0
  4519 ;;		On exit  : 0/0
  4520 ;;		Unchanged: 0/0
  4521 ;; Data sizes:     COMMON   BANK0   BANK1   BANK3   BANK2
  4522 ;;      Params:         0       0       0       0       0
  4523 ;;      Locals:         0       0       0       0       0
  4524 ;;      Temps:          2       0       0       0       0
  4525 ;;      Totals:         2       0       0       0       0
  4526 ;;Total ram usage:        2 bytes
  4527 ;; Hardware stack levels used: 1
  4528 ;; Hardware stack levels required when called: 2
  4529 ;; This function calls:
  4530 ;;		_clcd_write
  4531 ;; This function is called by:
  4532 ;;		_main
  4533 ;;		_washing_program_display
  4534 ;;		_water_level_screen
  4535 ;;		_run_program
  4536 ;;		_door_status_check
  4537 ;; This function uses a non-reentrant model
  4538 ;;
  4539                           
  4540     1421                     _clear_screen:	
  4541                           ;psect for function _clear_screen
  4542                           
  4543     1421                     l2964:	
  4544                           ;incstack = 0
  4545                           ; Regs used in _clear_screen: [wreg+status,2+status,0+pclath+cstack]
  4546                           
  4547                           
  4548                           ;washing_machine_function_def.c: 446:     clcd_write(0x01, 0);
  4549     1421  01F2               	clrf	clcd_write@mode
  4550     1422  3001               	movlw	1
  4551     1423  160A  118A  246D  160A  118A  	fcall	_clcd_write
  4552     1428                     l2966:
  4553                           
  4554                           ;washing_machine_function_def.c: 447:     _delay((unsigned long)((500)*(20000000/4000000
      +                          .0)));
  4555     1428  3004               	movlw	4
  4556     1429  00F7               	movwf	??_clear_screen+1
  4557     142A  303D               	movlw	61
  4558     142B  00F6               	movwf	??_clear_screen
  4559     142C                     u5787:
  4560     142C  0BF6               	decfsz	??_clear_screen,f
  4561     142D  2C2C               	goto	u5787
  4562     142E  0BF7               	decfsz	??_clear_screen+1,f
  4563     142F  2C2C               	goto	u5787
  4564     1430  2C31               	nop2
  4565     1431                     l358:
  4566     1431  0008               	return
  4567     1432                     __end_of_clear_screen:
  4568                           
  4569                           	psect	text7
  4570     0918                     __ptext7:	
  4571 ;; *************** function ___xxtofl *****************
  4572 ;; Defined at:
  4573 ;;		line 10 in file "C:\Program Files\Microchip\xc8\v3.00\pic\sources\c99\common\xxtofl.c"
  4574 ;; Parameters:    Size  Location     Type
  4575 ;;  sign            1    wreg     unsigned char 
  4576 ;;  val             4    2[COMMON] long 
  4577 ;; Auto vars:     Size  Location     Type
  4578 ;;  sign            1    4[BANK0 ] unsigned char 
  4579 ;;  arg             4    6[BANK0 ] unsigned long 
  4580 ;;  exp             1    5[BANK0 ] unsigned char 
  4581 ;; Return value:  Size  Location     Type
  4582 ;;                  4    2[COMMON] unsigned char 
  4583 ;; Registers used:
  4584 ;;		wreg, status,2, status,0
  4585 ;; Tracked objects:
  4586 ;;		On entry : 0/0
  4587 ;;		On exit  : 0/0
  4588 ;;		Unchanged: 0/0
  4589 ;; Data sizes:     COMMON   BANK0   BANK1   BANK3   BANK2
  4590 ;;      Params:         4       0       0       0       0
  4591 ;;      Locals:         0       6       0       0       0
  4592 ;;      Temps:          0       4       0       0       0
  4593 ;;      Totals:         4      10       0       0       0
  4594 ;;Total ram usage:       14 bytes
  4595 ;; Hardware stack levels used: 1
  4596 ;; Hardware stack levels required when called: 1
  4597 ;; This function calls:
  4598 ;;		Nothing
  4599 ;; This function is called by:
  4600 ;;		_run_program
  4601 ;; This function uses a non-reentrant model
  4602 ;;
  4603                           
  4604     0918                     ___xxtofl:	
  4605                           ;psect for function ___xxtofl
  4606                           
  4607                           
  4608                           ;incstack = 0
  4609                           ; Regs used in ___xxtofl: [wreg+status,2+status,0]
  4610                           ;___xxtofl@sign stored from wreg
  4611     0918  1283               	bcf	3,5	;RP0=0, select bank0
  4612     0919  1303               	bcf	3,6	;RP1=0, select bank0
  4613     091A  00A4               	movwf	___xxtofl@sign
  4614     091B                     l3534:
  4615     091B  0824               	movf	___xxtofl@sign,w
  4616     091C  1903               	btfsc	3,2
  4617     091D  291F               	goto	u4851
  4618     091E  2920               	goto	u4850
  4619     091F                     u4851:
  4620     091F  2934               	goto	l3540
  4621     0920                     u4850:
  4622     0920                     l3536:
  4623     0920  1FF5               	btfss	___xxtofl@val+3,7
  4624     0921  2923               	goto	u4861
  4625     0922  2924               	goto	u4860
  4626     0923                     u4861:
  4627     0923  2934               	goto	l3540
  4628     0924                     u4860:
  4629     0924                     l3538:
  4630     0924  0972               	comf	___xxtofl@val,w
  4631     0925  00A6               	movwf	___xxtofl@arg
  4632     0926  0973               	comf	___xxtofl@val+1,w
  4633     0927  00A7               	movwf	___xxtofl@arg+1
  4634     0928  0974               	comf	___xxtofl@val+2,w
  4635     0929  00A8               	movwf	___xxtofl@arg+2
  4636     092A  0975               	comf	___xxtofl@val+3,w
  4637     092B  00A9               	movwf	___xxtofl@arg+3
  4638     092C  0AA6               	incf	___xxtofl@arg,f
  4639     092D  1903               	skipnz
  4640     092E  0AA7               	incf	___xxtofl@arg+1,f
  4641     092F  1903               	skipnz
  4642     0930  0AA8               	incf	___xxtofl@arg+2,f
  4643     0931  1903               	skipnz
  4644     0932  0AA9               	incf	___xxtofl@arg+3,f
  4645     0933  293C               	goto	l885
  4646     0934                     l3540:
  4647     0934  0875               	movf	___xxtofl@val+3,w
  4648     0935  00A9               	movwf	___xxtofl@arg+3
  4649     0936  0874               	movf	___xxtofl@val+2,w
  4650     0937  00A8               	movwf	___xxtofl@arg+2
  4651     0938  0873               	movf	___xxtofl@val+1,w
  4652     0939  00A7               	movwf	___xxtofl@arg+1
  4653     093A  0872               	movf	___xxtofl@val,w
  4654     093B  00A6               	movwf	___xxtofl@arg
  4655     093C                     l885:
  4656     093C  0875               	movf	___xxtofl@val+3,w
  4657     093D  0474               	iorwf	___xxtofl@val+2,w
  4658     093E  0473               	iorwf	___xxtofl@val+1,w
  4659     093F  0472               	iorwf	___xxtofl@val,w
  4660     0940  1D03               	skipz
  4661     0941  2943               	goto	u4871
  4662     0942  2944               	goto	u4870
  4663     0943                     u4871:
  4664     0943  294D               	goto	l886
  4665     0944                     u4870:
  4666     0944                     l3542:
  4667     0944  3000               	movlw	0
  4668     0945  00F5               	movwf	?___xxtofl+3
  4669     0946  3000               	movlw	0
  4670     0947  00F4               	movwf	?___xxtofl+2
  4671     0948  3000               	movlw	0
  4672     0949  00F3               	movwf	?___xxtofl+1
  4673     094A  3000               	movlw	0
  4674     094B  00F2               	movwf	?___xxtofl
  4675     094C  29CD               	goto	l887
  4676     094D                     l886:
  4677     094D  3096               	movlw	150
  4678     094E  00A5               	movwf	___xxtofl@exp
  4679     094F  295B               	goto	l3548
  4680     0950                     l3546:
  4681     0950  3001               	movlw	1
  4682     0951  07A5               	addwf	___xxtofl@exp,f
  4683     0952  3001               	movlw	1
  4684     0953                     u4885:
  4685     0953  1003               	clrc
  4686     0954  0CA9               	rrf	___xxtofl@arg+3,f
  4687     0955  0CA8               	rrf	___xxtofl@arg+2,f
  4688     0956  0CA7               	rrf	___xxtofl@arg+1,f
  4689     0957  0CA6               	rrf	___xxtofl@arg,f
  4690     0958  3EFF               	addlw	-1
  4691     0959  1D03               	skipz
  4692     095A  2953               	goto	u4885
  4693     095B                     l3548:
  4694     095B  30FE               	movlw	254
  4695     095C  0529               	andwf	___xxtofl@arg+3,w
  4696     095D  1D03               	btfss	3,2
  4697     095E  2960               	goto	u4891
  4698     095F  2961               	goto	u4890
  4699     0960                     u4891:
  4700     0960  2950               	goto	l3546
  4701     0961                     u4890:
  4702     0961  297B               	goto	l891
  4703     0962                     l3550:
  4704     0962  3001               	movlw	1
  4705     0963  07A5               	addwf	___xxtofl@exp,f
  4706     0964                     l3552:
  4707     0964  3001               	movlw	1
  4708     0965  07A6               	addwf	___xxtofl@arg,f
  4709     0966  3000               	movlw	0
  4710     0967  1803               	skipnc
  4711     0968  3001               	movlw	1
  4712     0969  07A7               	addwf	___xxtofl@arg+1,f
  4713     096A  3000               	movlw	0
  4714     096B  1803               	skipnc
  4715     096C  3001               	movlw	1
  4716     096D  07A8               	addwf	___xxtofl@arg+2,f
  4717     096E  3000               	movlw	0
  4718     096F  1803               	skipnc
  4719     0970  3001               	movlw	1
  4720     0971  07A9               	addwf	___xxtofl@arg+3,f
  4721     0972                     l3554:
  4722     0972  3001               	movlw	1
  4723     0973                     u4905:
  4724     0973  1003               	clrc
  4725     0974  0CA9               	rrf	___xxtofl@arg+3,f
  4726     0975  0CA8               	rrf	___xxtofl@arg+2,f
  4727     0976  0CA7               	rrf	___xxtofl@arg+1,f
  4728     0977  0CA6               	rrf	___xxtofl@arg,f
  4729     0978  3EFF               	addlw	-1
  4730     0979  1D03               	skipz
  4731     097A  2973               	goto	u4905
  4732     097B                     l891:
  4733     097B  30FF               	movlw	255
  4734     097C  0529               	andwf	___xxtofl@arg+3,w
  4735     097D  1D03               	btfss	3,2
  4736     097E  2980               	goto	u4911
  4737     097F  2981               	goto	u4910
  4738     0980                     u4911:
  4739     0980  2962               	goto	l3550
  4740     0981                     u4910:
  4741     0981  298D               	goto	l3558
  4742     0982                     l3556:
  4743     0982  3001               	movlw	1
  4744     0983  02A5               	subwf	___xxtofl@exp,f
  4745     0984  3001               	movlw	1
  4746     0985  00A0               	movwf	??___xxtofl
  4747     0986                     u4925:
  4748     0986  1003               	clrc
  4749     0987  0DA6               	rlf	___xxtofl@arg,f
  4750     0988  0DA7               	rlf	___xxtofl@arg+1,f
  4751     0989  0DA8               	rlf	___xxtofl@arg+2,f
  4752     098A  0DA9               	rlf	___xxtofl@arg+3,f
  4753     098B  0BA0               	decfsz	??___xxtofl,f
  4754     098C  2986               	goto	u4925
  4755     098D                     l3558:
  4756     098D  1BA8               	btfsc	___xxtofl@arg+2,7
  4757     098E  2990               	goto	u4931
  4758     098F  2991               	goto	u4930
  4759     0990                     u4931:
  4760     0990  2997               	goto	l898
  4761     0991                     u4930:
  4762     0991                     l3560:
  4763     0991  3002               	movlw	2
  4764     0992  0225               	subwf	___xxtofl@exp,w
  4765     0993  1803               	skipnc
  4766     0994  2996               	goto	u4941
  4767     0995  2997               	goto	u4940
  4768     0996                     u4941:
  4769     0996  2982               	goto	l3556
  4770     0997                     u4940:
  4771     0997                     l898:
  4772     0997  1825               	btfsc	___xxtofl@exp,0
  4773     0998  299A               	goto	u4951
  4774     0999  299B               	goto	u4950
  4775     099A                     u4951:
  4776     099A  29A3               	goto	l899
  4777     099B                     u4950:
  4778     099B                     l3562:
  4779     099B  30FF               	movlw	255
  4780     099C  05A6               	andwf	___xxtofl@arg,f
  4781     099D  30FF               	movlw	255
  4782     099E  05A7               	andwf	___xxtofl@arg+1,f
  4783     099F  307F               	movlw	127
  4784     09A0  05A8               	andwf	___xxtofl@arg+2,f
  4785     09A1  30FF               	movlw	255
  4786     09A2  05A9               	andwf	___xxtofl@arg+3,f
  4787     09A3                     l899:
  4788     09A3  1003               	clrc
  4789     09A4  0CA5               	rrf	___xxtofl@exp,f
  4790     09A5                     l3564:
  4791     09A5  0825               	movf	___xxtofl@exp,w
  4792     09A6  00A0               	movwf	??___xxtofl
  4793     09A7  01A1               	clrf	??___xxtofl+1
  4794     09A8  01A2               	clrf	??___xxtofl+2
  4795     09A9  01A3               	clrf	??___xxtofl+3
  4796     09AA  3018               	movlw	24
  4797     09AB                     u4965:
  4798     09AB  1003               	clrc
  4799     09AC  0DA0               	rlf	??___xxtofl,f
  4800     09AD  0DA1               	rlf	??___xxtofl+1,f
  4801     09AE  0DA2               	rlf	??___xxtofl+2,f
  4802     09AF  0DA3               	rlf	??___xxtofl+3,f
  4803     09B0                     u4960:
  4804     09B0  3EFF               	addlw	-1
  4805     09B1  1D03               	skipz
  4806     09B2  29AB               	goto	u4965
  4807     09B3  0820               	movf	??___xxtofl,w
  4808     09B4  04A6               	iorwf	___xxtofl@arg,f
  4809     09B5  0821               	movf	??___xxtofl+1,w
  4810     09B6  04A7               	iorwf	___xxtofl@arg+1,f
  4811     09B7  0822               	movf	??___xxtofl+2,w
  4812     09B8  04A8               	iorwf	___xxtofl@arg+2,f
  4813     09B9  0823               	movf	??___xxtofl+3,w
  4814     09BA  04A9               	iorwf	___xxtofl@arg+3,f
  4815     09BB                     l3566:
  4816     09BB  0824               	movf	___xxtofl@sign,w
  4817     09BC  1903               	btfsc	3,2
  4818     09BD  29BF               	goto	u4971
  4819     09BE  29C0               	goto	u4970
  4820     09BF                     u4971:
  4821     09BF  29C5               	goto	l3572
  4822     09C0                     u4970:
  4823     09C0                     l3568:
  4824     09C0  1FF5               	btfss	___xxtofl@val+3,7
  4825     09C1  29C3               	goto	u4981
  4826     09C2  29C4               	goto	u4980
  4827     09C3                     u4981:
  4828     09C3  29C5               	goto	l3572
  4829     09C4                     u4980:
  4830     09C4                     l3570:
  4831     09C4  17A9               	bsf	___xxtofl@arg+3,7
  4832     09C5                     l3572:
  4833     09C5  0829               	movf	___xxtofl@arg+3,w
  4834     09C6  00F5               	movwf	?___xxtofl+3
  4835     09C7  0828               	movf	___xxtofl@arg+2,w
  4836     09C8  00F4               	movwf	?___xxtofl+2
  4837     09C9  0827               	movf	___xxtofl@arg+1,w
  4838     09CA  00F3               	movwf	?___xxtofl+1
  4839     09CB  0826               	movf	___xxtofl@arg,w
  4840     09CC  00F2               	movwf	?___xxtofl
  4841     09CD                     l887:
  4842     09CD  0008               	return
  4843     09CE                     __end_of___xxtofl:
  4844                           
  4845                           	psect	text8
  4846     16E7                     __ptext8:	
  4847 ;; *************** function ___fltol *****************
  4848 ;; Defined at:
  4849 ;;		line 43 in file "C:\Program Files\Microchip\xc8\v3.00\pic\sources\c99\common\fltol.c"
  4850 ;; Parameters:    Size  Location     Type
  4851 ;;  f1              4   36[BANK0 ] unsigned char 
  4852 ;; Auto vars:     Size  Location     Type
  4853 ;;  exp1            1    7[COMMON] unsigned char 
  4854 ;;  sign1           1    6[COMMON] unsigned char 
  4855 ;; Return value:  Size  Location     Type
  4856 ;;                  4   36[BANK0 ] long 
  4857 ;; Registers used:
  4858 ;;		wreg, status,2, status,0
  4859 ;; Tracked objects:
  4860 ;;		On entry : 0/0
  4861 ;;		On exit  : 0/0
  4862 ;;		Unchanged: 0/0
  4863 ;; Data sizes:     COMMON   BANK0   BANK1   BANK3   BANK2
  4864 ;;      Params:         0       4       0       0       0
  4865 ;;      Locals:         2       0       0       0       0
  4866 ;;      Temps:          0       4       0       0       0
  4867 ;;      Totals:         2       8       0       0       0
  4868 ;;Total ram usage:       10 bytes
  4869 ;; Hardware stack levels used: 1
  4870 ;; Hardware stack levels required when called: 1
  4871 ;; This function calls:
  4872 ;;		Nothing
  4873 ;; This function is called by:
  4874 ;;		_run_program
  4875 ;; This function uses a non-reentrant model
  4876 ;;
  4877                           
  4878     16E7                     ___fltol:	
  4879                           ;psect for function ___fltol
  4880                           
  4881     16E7                     l3350:	
  4882                           ;incstack = 0
  4883                           ; Regs used in ___fltol: [wreg+status,2+status,0]
  4884                           
  4885     16E7  1003               	clrc
  4886     16E8  1283               	bcf	3,5	;RP0=0, select bank0
  4887     16E9  1303               	bcf	3,6	;RP1=0, select bank0
  4888     16EA  0D46               	rlf	___fltol@f1+2,w
  4889     16EB  0D47               	rlf	___fltol@f1+3,w
  4890     16EC  00F7               	movwf	___fltol@exp1
  4891     16ED  0877               	movf	___fltol@exp1,w
  4892     16EE  1D03               	btfss	3,2
  4893     16EF  2EF1               	goto	u4381
  4894     16F0  2EF2               	goto	u4380
  4895     16F1                     u4381:
  4896     16F1  2EFB               	goto	l3356
  4897     16F2                     u4380:
  4898     16F2                     l3352:
  4899     16F2  3000               	movlw	0
  4900     16F3  00C7               	movwf	?___fltol+3
  4901     16F4  3000               	movlw	0
  4902     16F5  00C6               	movwf	?___fltol+2
  4903     16F6  3000               	movlw	0
  4904     16F7  00C5               	movwf	?___fltol+1
  4905     16F8  3000               	movlw	0
  4906     16F9  00C4               	movwf	?___fltol
  4907     16FA  2F5C               	goto	l638
  4908     16FB                     l3356:
  4909     16FB  0844               	movf	___fltol@f1,w
  4910     16FC  00C8               	movwf	??___fltol
  4911     16FD  0845               	movf	___fltol@f1+1,w
  4912     16FE  00C9               	movwf	??___fltol+1
  4913     16FF  0846               	movf	___fltol@f1+2,w
  4914     1700  00CA               	movwf	??___fltol+2
  4915     1701  0847               	movf	___fltol@f1+3,w
  4916     1702  00CB               	movwf	??___fltol+3
  4917     1703  301F               	movlw	31
  4918     1704                     u4395:
  4919     1704  1003               	clrc
  4920     1705  0CCB               	rrf	??___fltol+3,f
  4921     1706  0CCA               	rrf	??___fltol+2,f
  4922     1707  0CC9               	rrf	??___fltol+1,f
  4923     1708  0CC8               	rrf	??___fltol,f
  4924     1709                     u4390:
  4925     1709  3EFF               	addlw	-1
  4926     170A  1D03               	skipz
  4927     170B  2F04               	goto	u4395
  4928     170C  0848               	movf	??___fltol,w
  4929     170D  00F6               	movwf	___fltol@sign1
  4930     170E                     l3358:
  4931     170E  17C6               	bsf	___fltol@f1+2,7
  4932     170F                     l3360:
  4933     170F  30FF               	movlw	255
  4934     1710  05C4               	andwf	___fltol@f1,f
  4935     1711  30FF               	movlw	255
  4936     1712  05C5               	andwf	___fltol@f1+1,f
  4937     1713  30FF               	movlw	255
  4938     1714  05C6               	andwf	___fltol@f1+2,f
  4939     1715  3000               	movlw	0
  4940     1716  05C7               	andwf	___fltol@f1+3,f
  4941     1717                     l3362:
  4942     1717  3096               	movlw	150
  4943     1718  02F7               	subwf	___fltol@exp1,f
  4944     1719                     l3364:
  4945     1719  1FF7               	btfss	___fltol@exp1,7
  4946     171A  2F1C               	goto	u4401
  4947     171B  2F1D               	goto	u4400
  4948     171C                     u4401:
  4949     171C  2F35               	goto	l3374
  4950     171D                     u4400:
  4951     171D                     l3366:
  4952     171D  0877               	movf	___fltol@exp1,w
  4953     171E  3A80               	xorlw	128
  4954     171F  3E97               	addlw	151
  4955     1720  1803               	skipnc
  4956     1721  2F23               	goto	u4411
  4957     1722  2F24               	goto	u4410
  4958     1723                     u4411:
  4959     1723  2F25               	goto	l3372
  4960     1724                     u4410:
  4961     1724  2EF2               	goto	l3352
  4962     1725                     l3372:
  4963     1725  3001               	movlw	1
  4964     1726                     u4425:
  4965     1726  1003               	clrc
  4966     1727  0CC7               	rrf	___fltol@f1+3,f
  4967     1728  0CC6               	rrf	___fltol@f1+2,f
  4968     1729  0CC5               	rrf	___fltol@f1+1,f
  4969     172A  0CC4               	rrf	___fltol@f1,f
  4970     172B  3EFF               	addlw	-1
  4971     172C  1D03               	skipz
  4972     172D  2F26               	goto	u4425
  4973     172E  3001               	movlw	1
  4974     172F  07F7               	addwf	___fltol@exp1,f
  4975     1730  1D03               	btfss	3,2
  4976     1731  2F33               	goto	u4431
  4977     1732  2F34               	goto	u4430
  4978     1733                     u4431:
  4979     1733  2F25               	goto	l3372
  4980     1734                     u4430:
  4981     1734  2F4C               	goto	l3382
  4982     1735                     l3374:
  4983     1735  3020               	movlw	32
  4984     1736  0277               	subwf	___fltol@exp1,w
  4985     1737  1C03               	skipc
  4986     1738  2F3A               	goto	u4441
  4987     1739  2F3B               	goto	u4440
  4988     173A                     u4441:
  4989     173A  2F47               	goto	l645
  4990     173B                     u4440:
  4991     173B  2EF2               	goto	l3352
  4992     173C                     l3380:
  4993     173C  3001               	movlw	1
  4994     173D  00C8               	movwf	??___fltol
  4995     173E                     u4455:
  4996     173E  1003               	clrc
  4997     173F  0DC4               	rlf	___fltol@f1,f
  4998     1740  0DC5               	rlf	___fltol@f1+1,f
  4999     1741  0DC6               	rlf	___fltol@f1+2,f
  5000     1742  0DC7               	rlf	___fltol@f1+3,f
  5001     1743  0BC8               	decfsz	??___fltol,f
  5002     1744  2F3E               	goto	u4455
  5003     1745  3001               	movlw	1
  5004     1746  02F7               	subwf	___fltol@exp1,f
  5005     1747                     l645:
  5006     1747  0877               	movf	___fltol@exp1,w
  5007     1748  1D03               	btfss	3,2
  5008     1749  2F4B               	goto	u4461
  5009     174A  2F4C               	goto	u4460
  5010     174B                     u4461:
  5011     174B  2F3C               	goto	l3380
  5012     174C                     u4460:
  5013     174C                     l3382:
  5014     174C  0876               	movf	___fltol@sign1,w
  5015     174D  1903               	btfsc	3,2
  5016     174E  2F50               	goto	u4471
  5017     174F  2F51               	goto	u4470
  5018     1750                     u4471:
  5019     1750  2F5C               	goto	l648
  5020     1751                     u4470:
  5021     1751                     l3384:
  5022     1751  09C4               	comf	___fltol@f1,f
  5023     1752  09C5               	comf	___fltol@f1+1,f
  5024     1753  09C6               	comf	___fltol@f1+2,f
  5025     1754  09C7               	comf	___fltol@f1+3,f
  5026     1755  0AC4               	incf	___fltol@f1,f
  5027     1756  1903               	skipnz
  5028     1757  0AC5               	incf	___fltol@f1+1,f
  5029     1758  1903               	skipnz
  5030     1759  0AC6               	incf	___fltol@f1+2,f
  5031     175A  1903               	skipnz
  5032     175B  0AC7               	incf	___fltol@f1+3,f
  5033     175C                     l648:
  5034     175C                     l638:
  5035     175C  0008               	return
  5036     175D                     __end_of___fltol:
  5037                           
  5038                           	psect	text9
  5039     148D                     __ptext9:	
  5040 ;; *************** function ___flsub *****************
  5041 ;; Defined at:
  5042 ;;		line 242 in file "C:\Program Files\Microchip\xc8\v3.00\pic\sources\c99\common\sprcadd.c"
  5043 ;; Parameters:    Size  Location     Type
  5044 ;;  a               4   36[BANK0 ] long 
  5045 ;;  b               4   40[BANK0 ] long 
  5046 ;; Auto vars:     Size  Location     Type
  5047 ;;		None
  5048 ;; Return value:  Size  Location     Type
  5049 ;;                  4   36[BANK0 ] long 
  5050 ;; Registers used:
  5051 ;;		wreg, status,2, status,0, btemp+1, pclath, cstack
  5052 ;; Tracked objects:
  5053 ;;		On entry : 0/0
  5054 ;;		On exit  : 0/0
  5055 ;;		Unchanged: 0/0
  5056 ;; Data sizes:     COMMON   BANK0   BANK1   BANK3   BANK2
  5057 ;;      Params:         0       8       0       0       0
  5058 ;;      Locals:         0       0       0       0       0
  5059 ;;      Temps:          0       0       0       0       0
  5060 ;;      Totals:         0       8       0       0       0
  5061 ;;Total ram usage:        8 bytes
  5062 ;; Hardware stack levels used: 1
  5063 ;; Hardware stack levels required when called: 2
  5064 ;; This function calls:
  5065 ;;		___fladd
  5066 ;; This function is called by:
  5067 ;;		_run_program
  5068 ;; This function uses a non-reentrant model
  5069 ;;
  5070                           
  5071     148D                     ___flsub:	
  5072                           ;psect for function ___flsub
  5073                           
  5074     148D                     l3386:	
  5075                           ;incstack = 0
  5076                           ; Regs used in ___flsub: [wreg+status,2+status,0+btemp+1+pclath+cstack]
  5077                           
  5078     148D  3080               	movlw	128
  5079     148E  1283               	bcf	3,5	;RP0=0, select bank0
  5080     148F  1303               	bcf	3,6	;RP1=0, select bank0
  5081     1490  06C7               	xorwf	___flsub@a+3,f
  5082     1491                     l3388:
  5083     1491  084B               	movf	___flsub@b+3,w
  5084     1492  00A3               	movwf	___fladd@b+3
  5085     1493  084A               	movf	___flsub@b+2,w
  5086     1494  00A2               	movwf	___fladd@b+2
  5087     1495  0849               	movf	___flsub@b+1,w
  5088     1496  00A1               	movwf	___fladd@b+1
  5089     1497  0848               	movf	___flsub@b,w
  5090     1498  00A0               	movwf	___fladd@b
  5091     1499  0847               	movf	___flsub@a+3,w
  5092     149A  00A7               	movwf	___fladd@a+3
  5093     149B  0846               	movf	___flsub@a+2,w
  5094     149C  00A6               	movwf	___fladd@a+2
  5095     149D  0845               	movf	___flsub@a+1,w
  5096     149E  00A5               	movwf	___fladd@a+1
  5097     149F  0844               	movf	___flsub@a,w
  5098     14A0  00A4               	movwf	___fladd@a
  5099     14A1  120A  158A  25A8  160A  118A  	fcall	___fladd
  5100     14A6  1283               	bcf	3,5	;RP0=0, select bank0
  5101     14A7  1303               	bcf	3,6	;RP1=0, select bank0
  5102     14A8  0823               	movf	?___fladd+3,w
  5103     14A9  00C7               	movwf	?___flsub+3
  5104     14AA  0822               	movf	?___fladd+2,w
  5105     14AB  00C6               	movwf	?___flsub+2
  5106     14AC  0821               	movf	?___fladd+1,w
  5107     14AD  00C5               	movwf	?___flsub+1
  5108     14AE  0820               	movf	?___fladd,w
  5109     14AF  00C4               	movwf	?___flsub
  5110     14B0                     l791:
  5111     14B0  0008               	return
  5112     14B1                     __end_of___flsub:
  5113                           
  5114                           	psect	text10
  5115     0DA8                     __ptext10:	
  5116 ;; *************** function ___fladd *****************
  5117 ;; Defined at:
  5118 ;;		line 10 in file "C:\Program Files\Microchip\xc8\v3.00\pic\sources\c99\common\sprcadd.c"
  5119 ;; Parameters:    Size  Location     Type
  5120 ;;  b               4    0[BANK0 ] long 
  5121 ;;  a               4    4[BANK0 ] long 
  5122 ;; Auto vars:     Size  Location     Type
  5123 ;;  grs             1    5[COMMON] unsigned char 
  5124 ;;  bexp            1    4[COMMON] unsigned char 
  5125 ;;  aexp            1    3[COMMON] unsigned char 
  5126 ;;  signs           1    2[COMMON] unsigned char 
  5127 ;; Return value:  Size  Location     Type
  5128 ;;                  4    0[BANK0 ] unsigned char 
  5129 ;; Registers used:
  5130 ;;		wreg, status,2, status,0, btemp+1
  5131 ;; Tracked objects:
  5132 ;;		On entry : 0/0
  5133 ;;		On exit  : 0/0
  5134 ;;		Unchanged: 0/0
  5135 ;; Data sizes:     COMMON   BANK0   BANK1   BANK3   BANK2
  5136 ;;      Params:         0       8       0       0       0
  5137 ;;      Locals:         4       0       0       0       0
  5138 ;;      Temps:          0       8       0       0       0
  5139 ;;      Totals:         4      16       0       0       0
  5140 ;;Total ram usage:       20 bytes
  5141 ;; Hardware stack levels used: 1
  5142 ;; Hardware stack levels required when called: 1
  5143 ;; This function calls:
  5144 ;;		Nothing
  5145 ;; This function is called by:
  5146 ;;		___flsub
  5147 ;; This function uses a non-reentrant model
  5148 ;;
  5149                           
  5150     0DA8                     ___fladd:	
  5151                           ;psect for function ___fladd
  5152                           
  5153     0DA8                     l2988:	
  5154                           ;incstack = 0
  5155                           ; Regs used in ___fladd: [wreg+status,2+status,0+btemp+1]
  5156                           
  5157     0DA8  1283               	bcf	3,5	;RP0=0, select bank0
  5158     0DA9  1303               	bcf	3,6	;RP1=0, select bank0
  5159     0DAA  0823               	movf	___fladd@b+3,w
  5160     0DAB  00F2               	movwf	___fladd@signs
  5161     0DAC                     l2990:
  5162     0DAC  3080               	movlw	128
  5163     0DAD  05F2               	andwf	___fladd@signs,f
  5164     0DAE                     l2992:
  5165     0DAE  0823               	movf	___fladd@b+3,w
  5166     0DAF  00A8               	movwf	??___fladd
  5167     0DB0  0728               	addwf	??___fladd,w
  5168     0DB1  00F4               	movwf	___fladd@bexp
  5169     0DB2                     l2994:
  5170     0DB2  1FA2               	btfss	___fladd@b+2,7
  5171     0DB3  2DB5               	goto	u3591
  5172     0DB4  2DB6               	goto	u3590
  5173     0DB5                     u3591:
  5174     0DB5  2DB7               	goto	l2998
  5175     0DB6                     u3590:
  5176     0DB6                     l2996:
  5177     0DB6  1474               	bsf	___fladd@bexp,0
  5178     0DB7                     l2998:
  5179     0DB7  0874               	movf	___fladd@bexp,w
  5180     0DB8  1903               	btfsc	3,2
  5181     0DB9  2DBB               	goto	u3601
  5182     0DBA  2DBC               	goto	u3600
  5183     0DBB                     u3601:
  5184     0DBB  2DCC               	goto	l3008
  5185     0DBC                     u3600:
  5186     0DBC                     l3000:
  5187     0DBC  0A74               	incf	___fladd@bexp,w
  5188     0DBD  1D03               	btfss	3,2
  5189     0DBE  2DC0               	goto	u3611
  5190     0DBF  2DC1               	goto	u3610
  5191     0DC0                     u3611:
  5192     0DC0  2DC9               	goto	l3004
  5193     0DC1                     u3610:
  5194     0DC1                     l3002:
  5195     0DC1  3000               	movlw	0
  5196     0DC2  00A3               	movwf	___fladd@b+3
  5197     0DC3  3000               	movlw	0
  5198     0DC4  00A2               	movwf	___fladd@b+2
  5199     0DC5  3000               	movlw	0
  5200     0DC6  00A1               	movwf	___fladd@b+1
  5201     0DC7  3000               	movlw	0
  5202     0DC8  00A0               	movwf	___fladd@b
  5203     0DC9                     l3004:
  5204     0DC9  17A2               	bsf	___fladd@b+2,7
  5205     0DCA                     l3006:
  5206     0DCA  01A3               	clrf	___fladd@b+3
  5207     0DCB  2DD4               	goto	l740
  5208     0DCC                     l3008:
  5209     0DCC  3000               	movlw	0
  5210     0DCD  00A3               	movwf	___fladd@b+3
  5211     0DCE  3000               	movlw	0
  5212     0DCF  00A2               	movwf	___fladd@b+2
  5213     0DD0  3000               	movlw	0
  5214     0DD1  00A1               	movwf	___fladd@b+1
  5215     0DD2  3000               	movlw	0
  5216     0DD3  00A0               	movwf	___fladd@b
  5217     0DD4                     l740:
  5218     0DD4  0827               	movf	___fladd@a+3,w
  5219     0DD5  00F3               	movwf	___fladd@aexp
  5220     0DD6                     l3010:
  5221     0DD6  3080               	movlw	128
  5222     0DD7  05F3               	andwf	___fladd@aexp,f
  5223     0DD8                     l3012:
  5224     0DD8  0873               	movf	___fladd@aexp,w
  5225     0DD9  0672               	xorwf	___fladd@signs,w
  5226     0DDA  1903               	skipnz
  5227     0DDB  2DDD               	goto	u3621
  5228     0DDC  2DDE               	goto	u3620
  5229     0DDD                     u3621:
  5230     0DDD  2DDF               	goto	l3016
  5231     0DDE                     u3620:
  5232     0DDE                     l3014:
  5233     0DDE  1772               	bsf	___fladd@signs,6
  5234     0DDF                     l3016:
  5235     0DDF  0827               	movf	___fladd@a+3,w
  5236     0DE0  00A8               	movwf	??___fladd
  5237     0DE1  0728               	addwf	??___fladd,w
  5238     0DE2  00F3               	movwf	___fladd@aexp
  5239     0DE3                     l3018:
  5240     0DE3  1FA6               	btfss	___fladd@a+2,7
  5241     0DE4  2DE6               	goto	u3631
  5242     0DE5  2DE7               	goto	u3630
  5243     0DE6                     u3631:
  5244     0DE6  2DE8               	goto	l3022
  5245     0DE7                     u3630:
  5246     0DE7                     l3020:
  5247     0DE7  1473               	bsf	___fladd@aexp,0
  5248     0DE8                     l3022:
  5249     0DE8  0873               	movf	___fladd@aexp,w
  5250     0DE9  1903               	btfsc	3,2
  5251     0DEA  2DEC               	goto	u3641
  5252     0DEB  2DED               	goto	u3640
  5253     0DEC                     u3641:
  5254     0DEC  2DFD               	goto	l3032
  5255     0DED                     u3640:
  5256     0DED                     l3024:
  5257     0DED  0A73               	incf	___fladd@aexp,w
  5258     0DEE  1D03               	btfss	3,2
  5259     0DEF  2DF1               	goto	u3651
  5260     0DF0  2DF2               	goto	u3650
  5261     0DF1                     u3651:
  5262     0DF1  2DFA               	goto	l3028
  5263     0DF2                     u3650:
  5264     0DF2                     l3026:
  5265     0DF2  3000               	movlw	0
  5266     0DF3  00A7               	movwf	___fladd@a+3
  5267     0DF4  3000               	movlw	0
  5268     0DF5  00A6               	movwf	___fladd@a+2
  5269     0DF6  3000               	movlw	0
  5270     0DF7  00A5               	movwf	___fladd@a+1
  5271     0DF8  3000               	movlw	0
  5272     0DF9  00A4               	movwf	___fladd@a
  5273     0DFA                     l3028:
  5274     0DFA  17A6               	bsf	___fladd@a+2,7
  5275     0DFB                     l3030:
  5276     0DFB  01A7               	clrf	___fladd@a+3
  5277     0DFC  2E05               	goto	l745
  5278     0DFD                     l3032:
  5279     0DFD  3000               	movlw	0
  5280     0DFE  00A7               	movwf	___fladd@a+3
  5281     0DFF  3000               	movlw	0
  5282     0E00  00A6               	movwf	___fladd@a+2
  5283     0E01  3000               	movlw	0
  5284     0E02  00A5               	movwf	___fladd@a+1
  5285     0E03  3000               	movlw	0
  5286     0E04  00A4               	movwf	___fladd@a
  5287     0E05                     l745:
  5288     0E05  0874               	movf	___fladd@bexp,w
  5289     0E06  0273               	subwf	___fladd@aexp,w
  5290     0E07  1803               	skipnc
  5291     0E08  2E0A               	goto	u3661
  5292     0E09  2E0B               	goto	u3660
  5293     0E0A                     u3661:
  5294     0E0A  2E2F               	goto	l3068
  5295     0E0B                     u3660:
  5296     0E0B                     l3034:
  5297     0E0B  1F72               	btfss	___fladd@signs,6
  5298     0E0C  2E0E               	goto	u3671
  5299     0E0D  2E0F               	goto	u3670
  5300     0E0E                     u3671:
  5301     0E0E  2E11               	goto	l3038
  5302     0E0F                     u3670:
  5303     0E0F                     l3036:
  5304     0E0F  3080               	movlw	128
  5305     0E10  06F2               	xorwf	___fladd@signs,f
  5306     0E11                     l3038:
  5307     0E11  0874               	movf	___fladd@bexp,w
  5308     0E12  00F5               	movwf	___fladd@grs
  5309     0E13                     l3040:
  5310     0E13  0873               	movf	___fladd@aexp,w
  5311     0E14  00F4               	movwf	___fladd@bexp
  5312     0E15                     l3042:
  5313     0E15  0875               	movf	___fladd@grs,w
  5314     0E16  00F3               	movwf	___fladd@aexp
  5315     0E17                     l3044:
  5316     0E17  0820               	movf	___fladd@b,w
  5317     0E18  00F5               	movwf	___fladd@grs
  5318     0E19                     l3046:
  5319     0E19  0824               	movf	___fladd@a,w
  5320     0E1A  00A0               	movwf	___fladd@b
  5321     0E1B                     l3048:
  5322     0E1B  0875               	movf	___fladd@grs,w
  5323     0E1C  00A4               	movwf	___fladd@a
  5324     0E1D                     l3050:
  5325     0E1D  0821               	movf	___fladd@b+1,w
  5326     0E1E  00F5               	movwf	___fladd@grs
  5327     0E1F                     l3052:
  5328     0E1F  0825               	movf	___fladd@a+1,w
  5329     0E20  00A1               	movwf	___fladd@b+1
  5330     0E21                     l3054:
  5331     0E21  0875               	movf	___fladd@grs,w
  5332     0E22  00A5               	movwf	___fladd@a+1
  5333     0E23                     l3056:
  5334     0E23  0822               	movf	___fladd@b+2,w
  5335     0E24  00F5               	movwf	___fladd@grs
  5336     0E25                     l3058:
  5337     0E25  0826               	movf	___fladd@a+2,w
  5338     0E26  00A2               	movwf	___fladd@b+2
  5339     0E27                     l3060:
  5340     0E27  0875               	movf	___fladd@grs,w
  5341     0E28  00A6               	movwf	___fladd@a+2
  5342     0E29                     l3062:
  5343     0E29  0823               	movf	___fladd@b+3,w
  5344     0E2A  00F5               	movwf	___fladd@grs
  5345     0E2B                     l3064:
  5346     0E2B  0827               	movf	___fladd@a+3,w
  5347     0E2C  00A3               	movwf	___fladd@b+3
  5348     0E2D                     l3066:
  5349     0E2D  0875               	movf	___fladd@grs,w
  5350     0E2E  00A7               	movwf	___fladd@a+3
  5351     0E2F                     l3068:
  5352     0E2F  01F5               	clrf	___fladd@grs
  5353     0E30                     l3070:
  5354     0E30  0873               	movf	___fladd@aexp,w
  5355     0E31  00A8               	movwf	??___fladd
  5356     0E32  01A9               	clrf	??___fladd+1
  5357     0E33  0829               	movf	??___fladd+1,w
  5358     0E34  00AB               	movwf	??___fladd+3
  5359     0E35  0874               	movf	___fladd@bexp,w
  5360     0E36  0228               	subwf	??___fladd,w
  5361     0E37  00AA               	movwf	??___fladd+2
  5362     0E38  1C03               	skipc
  5363     0E39  03AB               	decf	??___fladd+3,f
  5364     0E3A  082B               	movf	??___fladd+3,w
  5365     0E3B  3A80               	xorlw	128
  5366     0E3C  00FF               	movwf	btemp+1
  5367     0E3D  3080               	movlw	128
  5368     0E3E  027F               	subwf	btemp+1,w
  5369     0E3F  1D03               	skipz
  5370     0E40  2E43               	goto	u3685
  5371     0E41  301A               	movlw	26
  5372     0E42  022A               	subwf	??___fladd+2,w
  5373     0E43                     u3685:
  5374     0E43  1C03               	skipc
  5375     0E44  2E46               	goto	u3681
  5376     0E45  2E47               	goto	u3680
  5377     0E46                     u3681:
  5378     0E46  2E80               	goto	l3086
  5379     0E47                     u3680:
  5380     0E47                     l3072:
  5381     0E47  1283               	bcf	3,5	;RP0=0, select bank0
  5382     0E48  1303               	bcf	3,6	;RP1=0, select bank0
  5383     0E49  0823               	movf	___fladd@b+3,w
  5384     0E4A  0422               	iorwf	___fladd@b+2,w
  5385     0E4B  0421               	iorwf	___fladd@b+1,w
  5386     0E4C  0420               	iorwf	___fladd@b,w
  5387     0E4D  1D03               	skipz
  5388     0E4E  2E50               	goto	u3691
  5389     0E4F  2E52               	goto	u3690
  5390     0E50                     u3691:
  5391     0E50  3001               	movlw	1
  5392     0E51  2E53               	goto	u3700
  5393     0E52                     u3690:
  5394     0E52  3000               	movlw	0
  5395     0E53                     u3700:
  5396     0E53  00F5               	movwf	___fladd@grs
  5397     0E54  3000               	movlw	0
  5398     0E55  00A3               	movwf	___fladd@b+3
  5399     0E56  3000               	movlw	0
  5400     0E57  00A2               	movwf	___fladd@b+2
  5401     0E58  3000               	movlw	0
  5402     0E59  00A1               	movwf	___fladd@b+1
  5403     0E5A  3000               	movlw	0
  5404     0E5B  00A0               	movwf	___fladd@b
  5405     0E5C  0873               	movf	___fladd@aexp,w
  5406     0E5D  00F4               	movwf	___fladd@bexp
  5407     0E5E  2E86               	goto	l749
  5408     0E5F                     l751:
  5409     0E5F  1C75               	btfss	___fladd@grs,0
  5410     0E60  2E62               	goto	u3711
  5411     0E61  2E63               	goto	u3710
  5412     0E62                     u3711:
  5413     0E62  2E6C               	goto	l3076
  5414     0E63                     u3710:
  5415     0E63                     l3074:
  5416     0E63  0875               	movf	___fladd@grs,w
  5417     0E64  1283               	bcf	3,5	;RP0=0, select bank0
  5418     0E65  1303               	bcf	3,6	;RP1=0, select bank0
  5419     0E66  00A8               	movwf	??___fladd
  5420     0E67  1003               	clrc
  5421     0E68  0C28               	rrf	??___fladd,w
  5422     0E69  3801               	iorlw	1
  5423     0E6A  00F5               	movwf	___fladd@grs
  5424     0E6B  2E6E               	goto	l3078
  5425     0E6C                     l3076:
  5426     0E6C  1003               	clrc
  5427     0E6D  0CF5               	rrf	___fladd@grs,f
  5428     0E6E                     l3078:
  5429     0E6E  1283               	bcf	3,5	;RP0=0, select bank0
  5430     0E6F  1303               	bcf	3,6	;RP1=0, select bank0
  5431     0E70  1C20               	btfss	___fladd@b,0
  5432     0E71  2E73               	goto	u3721
  5433     0E72  2E74               	goto	u3720
  5434     0E73                     u3721:
  5435     0E73  2E75               	goto	l3082
  5436     0E74                     u3720:
  5437     0E74                     l3080:
  5438     0E74  17F5               	bsf	___fladd@grs,7
  5439     0E75                     l3082:
  5440     0E75  3001               	movlw	1
  5441     0E76  00A8               	movwf	??___fladd
  5442     0E77                     u3735:
  5443     0E77  0D23               	rlf	___fladd@b+3,w
  5444     0E78  0CA3               	rrf	___fladd@b+3,f
  5445     0E79  0CA2               	rrf	___fladd@b+2,f
  5446     0E7A  0CA1               	rrf	___fladd@b+1,f
  5447     0E7B  0CA0               	rrf	___fladd@b,f
  5448     0E7C  0BA8               	decfsz	??___fladd& (0+127),f
  5449     0E7D  2E77               	goto	u3735
  5450     0E7E                     l3084:
  5451     0E7E  3001               	movlw	1
  5452     0E7F  07F4               	addwf	___fladd@bexp,f
  5453     0E80                     l3086:
  5454     0E80  0873               	movf	___fladd@aexp,w
  5455     0E81  0274               	subwf	___fladd@bexp,w
  5456     0E82  1C03               	skipc
  5457     0E83  2E85               	goto	u3741
  5458     0E84  2E86               	goto	u3740
  5459     0E85                     u3741:
  5460     0E85  2E5F               	goto	l751
  5461     0E86                     u3740:
  5462     0E86                     l749:
  5463     0E86  1B72               	btfsc	___fladd@signs,6
  5464     0E87  2E89               	goto	u3751
  5465     0E88  2E8A               	goto	u3750
  5466     0E89                     u3751:
  5467     0E89  2ED5               	goto	l3112
  5468     0E8A                     u3750:
  5469     0E8A                     l3088:
  5470     0E8A  0874               	movf	___fladd@bexp,w
  5471     0E8B  1D03               	btfss	3,2
  5472     0E8C  2E8E               	goto	u3761
  5473     0E8D  2E8F               	goto	u3760
  5474     0E8E                     u3761:
  5475     0E8E  2E9A               	goto	l3094
  5476     0E8F                     u3760:
  5477     0E8F                     l3090:
  5478     0E8F  3000               	movlw	0
  5479     0E90  1283               	bcf	3,5	;RP0=0, select bank0
  5480     0E91  1303               	bcf	3,6	;RP1=0, select bank0
  5481     0E92  00A3               	movwf	?___fladd+3
  5482     0E93  3000               	movlw	0
  5483     0E94  00A2               	movwf	?___fladd+2
  5484     0E95  3000               	movlw	0
  5485     0E96  00A1               	movwf	?___fladd+1
  5486     0E97  3000               	movlw	0
  5487     0E98  00A0               	movwf	?___fladd
  5488     0E99  2FFF               	goto	l758
  5489     0E9A                     l3094:
  5490     0E9A  1283               	bcf	3,5	;RP0=0, select bank0
  5491     0E9B  1303               	bcf	3,6	;RP1=0, select bank0
  5492     0E9C  0824               	movf	___fladd@a,w
  5493     0E9D  07A0               	addwf	___fladd@b,f
  5494     0E9E  0825               	movf	___fladd@a+1,w
  5495     0E9F  1103               	clrz
  5496     0EA0  1803               	skipnc
  5497     0EA1  3E01               	addlw	1
  5498     0EA2  1903               	skipnz
  5499     0EA3  2EA5               	goto	u3771
  5500     0EA4  07A1               	addwf	___fladd@b+1,f
  5501     0EA5                     u3771:
  5502     0EA5  0826               	movf	___fladd@a+2,w
  5503     0EA6  1103               	clrz
  5504     0EA7  1803               	skipnc
  5505     0EA8  3E01               	addlw	1
  5506     0EA9  1903               	skipnz
  5507     0EAA  2EAC               	goto	u3772
  5508     0EAB  07A2               	addwf	___fladd@b+2,f
  5509     0EAC                     u3772:
  5510     0EAC  0827               	movf	___fladd@a+3,w
  5511     0EAD  1103               	clrz
  5512     0EAE  1803               	skipnc
  5513     0EAF  3E01               	addlw	1
  5514     0EB0  1903               	skipnz
  5515     0EB1  2EB3               	goto	u3773
  5516     0EB2  07A3               	addwf	___fladd@b+3,f
  5517     0EB3                     u3773:
  5518     0EB3                     l3096:
  5519     0EB3  1C23               	btfss	___fladd@b+3,0
  5520     0EB4  2EB6               	goto	u3781
  5521     0EB5  2EB7               	goto	u3780
  5522     0EB6                     u3781:
  5523     0EB6  2F8B               	goto	l3148
  5524     0EB7                     u3780:
  5525     0EB7                     l3098:
  5526     0EB7  1C75               	btfss	___fladd@grs,0
  5527     0EB8  2EBA               	goto	u3791
  5528     0EB9  2EBB               	goto	u3790
  5529     0EBA                     u3791:
  5530     0EBA  2EC2               	goto	l3102
  5531     0EBB                     u3790:
  5532     0EBB                     l3100:
  5533     0EBB  0875               	movf	___fladd@grs,w
  5534     0EBC  00A8               	movwf	??___fladd
  5535     0EBD  1003               	clrc
  5536     0EBE  0C28               	rrf	??___fladd,w
  5537     0EBF  3801               	iorlw	1
  5538     0EC0  00F5               	movwf	___fladd@grs
  5539     0EC1  2EC4               	goto	l3104
  5540     0EC2                     l3102:
  5541     0EC2  1003               	clrc
  5542     0EC3  0CF5               	rrf	___fladd@grs,f
  5543     0EC4                     l3104:
  5544     0EC4  1C20               	btfss	___fladd@b,0
  5545     0EC5  2EC7               	goto	u3801
  5546     0EC6  2EC8               	goto	u3800
  5547     0EC7                     u3801:
  5548     0EC7  2EC9               	goto	l3108
  5549     0EC8                     u3800:
  5550     0EC8                     l3106:
  5551     0EC8  17F5               	bsf	___fladd@grs,7
  5552     0EC9                     l3108:
  5553     0EC9  3001               	movlw	1
  5554     0ECA  00A8               	movwf	??___fladd
  5555     0ECB                     u3815:
  5556     0ECB  0D23               	rlf	___fladd@b+3,w
  5557     0ECC  0CA3               	rrf	___fladd@b+3,f
  5558     0ECD  0CA2               	rrf	___fladd@b+2,f
  5559     0ECE  0CA1               	rrf	___fladd@b+1,f
  5560     0ECF  0CA0               	rrf	___fladd@b,f
  5561     0ED0  0BA8               	decfsz	??___fladd& (0+127),f
  5562     0ED1  2ECB               	goto	u3815
  5563     0ED2                     l3110:
  5564     0ED2  3001               	movlw	1
  5565     0ED3  07F4               	addwf	___fladd@bexp,f
  5566     0ED4  2F8B               	goto	l3148
  5567     0ED5                     l3112:
  5568     0ED5  1283               	bcf	3,5	;RP0=0, select bank0
  5569     0ED6  1303               	bcf	3,6	;RP1=0, select bank0
  5570     0ED7  0823               	movf	___fladd@b+3,w
  5571     0ED8  3A80               	xorlw	128
  5572     0ED9  00FF               	movwf	btemp+1
  5573     0EDA  0827               	movf	___fladd@a+3,w
  5574     0EDB  3A80               	xorlw	128
  5575     0EDC  027F               	subwf	btemp+1,w
  5576     0EDD  1D03               	skipz
  5577     0EDE  2EE9               	goto	u3823
  5578     0EDF  0826               	movf	___fladd@a+2,w
  5579     0EE0  0222               	subwf	___fladd@b+2,w
  5580     0EE1  1D03               	skipz
  5581     0EE2  2EE9               	goto	u3823
  5582     0EE3  0825               	movf	___fladd@a+1,w
  5583     0EE4  0221               	subwf	___fladd@b+1,w
  5584     0EE5  1D03               	skipz
  5585     0EE6  2EE9               	goto	u3823
  5586     0EE7  0824               	movf	___fladd@a,w
  5587     0EE8  0220               	subwf	___fladd@b,w
  5588     0EE9                     u3823:
  5589     0EE9  1803               	skipnc
  5590     0EEA  2EEC               	goto	u3821
  5591     0EEB  2EED               	goto	u3820
  5592     0EEC                     u3821:
  5593     0EEC  2F44               	goto	l3124
  5594     0EED                     u3820:
  5595     0EED                     l3114:
  5596     0EED  30FF               	movlw	255
  5597     0EEE  00A8               	movwf	??___fladd
  5598     0EEF  30FF               	movlw	255
  5599     0EF0  00A9               	movwf	??___fladd+1
  5600     0EF1  30FF               	movlw	255
  5601     0EF2  00AA               	movwf	??___fladd+2
  5602     0EF3  30FF               	movlw	255
  5603     0EF4  00AB               	movwf	??___fladd+3
  5604     0EF5  0824               	movf	___fladd@a,w
  5605     0EF6  00AC               	movwf	??___fladd+4
  5606     0EF7  0825               	movf	___fladd@a+1,w
  5607     0EF8  00AD               	movwf	??___fladd+5
  5608     0EF9  0826               	movf	___fladd@a+2,w
  5609     0EFA  00AE               	movwf	??___fladd+6
  5610     0EFB  0827               	movf	___fladd@a+3,w
  5611     0EFC  00AF               	movwf	??___fladd+7
  5612     0EFD  0820               	movf	___fladd@b,w
  5613     0EFE  02AC               	subwf	??___fladd+4,f
  5614     0EFF  0821               	movf	___fladd@b+1,w
  5615     0F00  1C03               	skipc
  5616     0F01  0F21               	incfsz	___fladd@b+1,w
  5617     0F02  2F04               	goto	u3831
  5618     0F03  2F05               	goto	u3832
  5619     0F04                     u3831:
  5620     0F04  02AD               	subwf	??___fladd+5,f
  5621     0F05                     u3832:
  5622     0F05  0822               	movf	___fladd@b+2,w
  5623     0F06  1C03               	skipc
  5624     0F07  0F22               	incfsz	___fladd@b+2,w
  5625     0F08  2F0A               	goto	u3833
  5626     0F09  2F0B               	goto	u3834
  5627     0F0A                     u3833:
  5628     0F0A  02AE               	subwf	??___fladd+6,f
  5629     0F0B                     u3834:
  5630     0F0B  0823               	movf	___fladd@b+3,w
  5631     0F0C  1C03               	skipc
  5632     0F0D  0F23               	incfsz	___fladd@b+3,w
  5633     0F0E  2F10               	goto	u3835
  5634     0F0F  2F11               	goto	u3836
  5635     0F10                     u3835:
  5636     0F10  02AF               	subwf	??___fladd+7,f
  5637     0F11                     u3836:
  5638     0F11  082C               	movf	??___fladd+4,w
  5639     0F12  07A8               	addwf	??___fladd,f
  5640     0F13  082D               	movf	??___fladd+5,w
  5641     0F14  1803               	skipnc
  5642     0F15  0F2D               	incfsz	??___fladd+5,w
  5643     0F16  2F18               	goto	u3840
  5644     0F17  2F19               	goto	u3841
  5645     0F18                     u3840:
  5646     0F18  07A9               	addwf	??___fladd+1,f
  5647     0F19                     u3841:
  5648     0F19  082E               	movf	??___fladd+6,w
  5649     0F1A  1803               	skipnc
  5650     0F1B  0F2E               	incfsz	??___fladd+6,w
  5651     0F1C  2F1E               	goto	u3842
  5652     0F1D  2F1F               	goto	u3843
  5653     0F1E                     u3842:
  5654     0F1E  07AA               	addwf	??___fladd+2,f
  5655     0F1F                     u3843:
  5656     0F1F  082F               	movf	??___fladd+7,w
  5657     0F20  1803               	skipnc
  5658     0F21  0A2F               	incf	??___fladd+7,w
  5659     0F22  07AB               	addwf	??___fladd+3,f
  5660     0F23  082B               	movf	??___fladd+3,w
  5661     0F24  00A3               	movwf	___fladd@b+3
  5662     0F25  082A               	movf	??___fladd+2,w
  5663     0F26  00A2               	movwf	___fladd@b+2
  5664     0F27  0829               	movf	??___fladd+1,w
  5665     0F28  00A1               	movwf	___fladd@b+1
  5666     0F29  0828               	movf	??___fladd,w
  5667     0F2A  00A0               	movwf	___fladd@b
  5668     0F2B                     l3116:
  5669     0F2B  3080               	movlw	128
  5670     0F2C  06F2               	xorwf	___fladd@signs,f
  5671     0F2D                     l3118:
  5672     0F2D  0375               	decf	___fladd@grs,w
  5673     0F2E  3AFF               	xorlw	255
  5674     0F2F  00F5               	movwf	___fladd@grs
  5675     0F30                     l3120:
  5676     0F30  0875               	movf	___fladd@grs,w
  5677     0F31  1D03               	btfss	3,2
  5678     0F32  2F34               	goto	u3851
  5679     0F33  2F35               	goto	u3850
  5680     0F34                     u3851:
  5681     0F34  2F52               	goto	l766
  5682     0F35                     u3850:
  5683     0F35                     l3122:
  5684     0F35  3001               	movlw	1
  5685     0F36  07A0               	addwf	___fladd@b,f
  5686     0F37  3000               	movlw	0
  5687     0F38  1803               	skipnc
  5688     0F39  3001               	movlw	1
  5689     0F3A  07A1               	addwf	___fladd@b+1,f
  5690     0F3B  3000               	movlw	0
  5691     0F3C  1803               	skipnc
  5692     0F3D  3001               	movlw	1
  5693     0F3E  07A2               	addwf	___fladd@b+2,f
  5694     0F3F  3000               	movlw	0
  5695     0F40  1803               	skipnc
  5696     0F41  3001               	movlw	1
  5697     0F42  07A3               	addwf	___fladd@b+3,f
  5698     0F43  2F52               	goto	l766
  5699     0F44                     l3124:
  5700     0F44  0824               	movf	___fladd@a,w
  5701     0F45  02A0               	subwf	___fladd@b,f
  5702     0F46  0825               	movf	___fladd@a+1,w
  5703     0F47  1C03               	skipc
  5704     0F48  0F25               	incfsz	___fladd@a+1,w
  5705     0F49  02A1               	subwf	___fladd@b+1,f
  5706     0F4A  0826               	movf	___fladd@a+2,w
  5707     0F4B  1C03               	skipc
  5708     0F4C  0F26               	incfsz	___fladd@a+2,w
  5709     0F4D  02A2               	subwf	___fladd@b+2,f
  5710     0F4E  0827               	movf	___fladd@a+3,w
  5711     0F4F  1C03               	skipc
  5712     0F50  0F27               	incfsz	___fladd@a+3,w
  5713     0F51  02A3               	subwf	___fladd@b+3,f
  5714     0F52                     l766:
  5715     0F52  0823               	movf	___fladd@b+3,w
  5716     0F53  0422               	iorwf	___fladd@b+2,w
  5717     0F54  0421               	iorwf	___fladd@b+1,w
  5718     0F55  0420               	iorwf	___fladd@b,w
  5719     0F56  1D03               	skipz
  5720     0F57  2F59               	goto	u3861
  5721     0F58  2F5A               	goto	u3860
  5722     0F59                     u3861:
  5723     0F59  2F87               	goto	l3146
  5724     0F5A                     u3860:
  5725     0F5A                     l3126:
  5726     0F5A  0875               	movf	___fladd@grs,w
  5727     0F5B  1D03               	btfss	3,2
  5728     0F5C  2F5E               	goto	u3871
  5729     0F5D  2F5F               	goto	u3870
  5730     0F5E                     u3871:
  5731     0F5E  2F87               	goto	l3146
  5732     0F5F                     u3870:
  5733     0F5F                     l3128:
  5734     0F5F  3000               	movlw	0
  5735     0F60  00A3               	movwf	?___fladd+3
  5736     0F61  3000               	movlw	0
  5737     0F62  00A2               	movwf	?___fladd+2
  5738     0F63  3000               	movlw	0
  5739     0F64  00A1               	movwf	?___fladd+1
  5740     0F65  3000               	movlw	0
  5741     0F66  00A0               	movwf	?___fladd
  5742     0F67  2FFF               	goto	l758
  5743     0F68                     l3132:
  5744     0F68  3001               	movlw	1
  5745     0F69  00A8               	movwf	??___fladd
  5746     0F6A                     u3885:
  5747     0F6A  1003               	clrc
  5748     0F6B  0DA0               	rlf	___fladd@b,f
  5749     0F6C  0DA1               	rlf	___fladd@b+1,f
  5750     0F6D  0DA2               	rlf	___fladd@b+2,f
  5751     0F6E  0DA3               	rlf	___fladd@b+3,f
  5752     0F6F  0BA8               	decfsz	??___fladd,f
  5753     0F70  2F6A               	goto	u3885
  5754     0F71                     l3134:
  5755     0F71  1FF5               	btfss	___fladd@grs,7
  5756     0F72  2F74               	goto	u3891
  5757     0F73  2F75               	goto	u3890
  5758     0F74                     u3891:
  5759     0F74  2F76               	goto	l770
  5760     0F75                     u3890:
  5761     0F75                     l3136:
  5762     0F75  1420               	bsf	___fladd@b,0
  5763     0F76                     l770:
  5764     0F76  1C75               	btfss	___fladd@grs,0
  5765     0F77  2F79               	goto	u3901
  5766     0F78  2F7A               	goto	u3900
  5767     0F79                     u3901:
  5768     0F79  2F7E               	goto	l3140
  5769     0F7A                     u3900:
  5770     0F7A                     l3138:
  5771     0F7A  1403               	setc
  5772     0F7B  0D75               	rlf	___fladd@grs,w
  5773     0F7C  00F5               	movwf	___fladd@grs
  5774     0F7D  2F80               	goto	l3142
  5775     0F7E                     l3140:
  5776     0F7E  1003               	clrc
  5777     0F7F  0DF5               	rlf	___fladd@grs,f
  5778     0F80                     l3142:
  5779     0F80  0874               	movf	___fladd@bexp,w
  5780     0F81  1903               	btfsc	3,2
  5781     0F82  2F84               	goto	u3911
  5782     0F83  2F85               	goto	u3910
  5783     0F84                     u3911:
  5784     0F84  2F87               	goto	l3146
  5785     0F85                     u3910:
  5786     0F85                     l3144:
  5787     0F85  3001               	movlw	1
  5788     0F86  02F4               	subwf	___fladd@bexp,f
  5789     0F87                     l3146:
  5790     0F87  1FA2               	btfss	___fladd@b+2,7
  5791     0F88  2F8A               	goto	u3921
  5792     0F89  2F8B               	goto	u3920
  5793     0F8A                     u3921:
  5794     0F8A  2F68               	goto	l3132
  5795     0F8B                     u3920:
  5796     0F8B                     l3148:
  5797     0F8B  01F3               	clrf	___fladd@aexp
  5798     0F8C                     l3150:
  5799     0F8C  1FF5               	btfss	___fladd@grs,7
  5800     0F8D  2F8F               	goto	u3931
  5801     0F8E  2F90               	goto	u3930
  5802     0F8F                     u3931:
  5803     0F8F  2F9E               	goto	l3158
  5804     0F90                     u3930:
  5805     0F90                     l3152:
  5806     0F90  0875               	movf	___fladd@grs,w
  5807     0F91  397F               	andlw	127
  5808     0F92  1903               	btfsc	3,2
  5809     0F93  2F95               	goto	u3941
  5810     0F94  2F96               	goto	u3940
  5811     0F95                     u3941:
  5812     0F95  2F99               	goto	l776
  5813     0F96                     u3940:
  5814     0F96                     l3154:
  5815     0F96  3001               	movlw	1
  5816     0F97  00F3               	movwf	___fladd@aexp
  5817     0F98  2F9E               	goto	l3158
  5818     0F99                     l776:
  5819     0F99  1C20               	btfss	___fladd@b,0
  5820     0F9A  2F9C               	goto	u3951
  5821     0F9B  2F9D               	goto	u3950
  5822     0F9C                     u3951:
  5823     0F9C  2F9E               	goto	l3158
  5824     0F9D                     u3950:
  5825     0F9D  2F96               	goto	l3154
  5826     0F9E                     l3158:
  5827     0F9E  0873               	movf	___fladd@aexp,w
  5828     0F9F  1903               	btfsc	3,2
  5829     0FA0  2FA2               	goto	u3961
  5830     0FA1  2FA3               	goto	u3960
  5831     0FA2                     u3961:
  5832     0FA2  2FD5               	goto	l779
  5833     0FA3                     u3960:
  5834     0FA3                     l3160:
  5835     0FA3  3001               	movlw	1
  5836     0FA4  07A0               	addwf	___fladd@b,f
  5837     0FA5  3000               	movlw	0
  5838     0FA6  1803               	skipnc
  5839     0FA7  3001               	movlw	1
  5840     0FA8  07A1               	addwf	___fladd@b+1,f
  5841     0FA9  3000               	movlw	0
  5842     0FAA  1803               	skipnc
  5843     0FAB  3001               	movlw	1
  5844     0FAC  07A2               	addwf	___fladd@b+2,f
  5845     0FAD  3000               	movlw	0
  5846     0FAE  1803               	skipnc
  5847     0FAF  3001               	movlw	1
  5848     0FB0  07A3               	addwf	___fladd@b+3,f
  5849     0FB1                     l3162:
  5850     0FB1  1C23               	btfss	___fladd@b+3,0
  5851     0FB2  2FB4               	goto	u3971
  5852     0FB3  2FB5               	goto	u3970
  5853     0FB4                     u3971:
  5854     0FB4  2FD5               	goto	l779
  5855     0FB5                     u3970:
  5856     0FB5                     l3164:
  5857     0FB5  0820               	movf	___fladd@b,w
  5858     0FB6  00A8               	movwf	??___fladd
  5859     0FB7  0821               	movf	___fladd@b+1,w
  5860     0FB8  00A9               	movwf	??___fladd+1
  5861     0FB9  0822               	movf	___fladd@b+2,w
  5862     0FBA  00AA               	movwf	??___fladd+2
  5863     0FBB  0823               	movf	___fladd@b+3,w
  5864     0FBC  00AB               	movwf	??___fladd+3
  5865     0FBD  3001               	movlw	1
  5866     0FBE  00AC               	movwf	??___fladd+4
  5867     0FBF                     u3985:
  5868     0FBF  0D2B               	rlf	??___fladd+3,w
  5869     0FC0  0CAB               	rrf	??___fladd+3,f
  5870     0FC1  0CAA               	rrf	??___fladd+2,f
  5871     0FC2  0CA9               	rrf	??___fladd+1,f
  5872     0FC3  0CA8               	rrf	??___fladd,f
  5873     0FC4                     u3980:
  5874     0FC4  0BAC               	decfsz	??___fladd+4,f
  5875     0FC5  2FBF               	goto	u3985
  5876     0FC6  082B               	movf	??___fladd+3,w
  5877     0FC7  00A3               	movwf	___fladd@b+3
  5878     0FC8  082A               	movf	??___fladd+2,w
  5879     0FC9  00A2               	movwf	___fladd@b+2
  5880     0FCA  0829               	movf	??___fladd+1,w
  5881     0FCB  00A1               	movwf	___fladd@b+1
  5882     0FCC  0828               	movf	??___fladd,w
  5883     0FCD  00A0               	movwf	___fladd@b
  5884     0FCE  0A74               	incf	___fladd@bexp,w
  5885     0FCF  1903               	btfsc	3,2
  5886     0FD0  2FD2               	goto	u3991
  5887     0FD1  2FD3               	goto	u3990
  5888     0FD2                     u3991:
  5889     0FD2  2FD5               	goto	l779
  5890     0FD3                     u3990:
  5891     0FD3                     l3166:
  5892     0FD3  3001               	movlw	1
  5893     0FD4  07F4               	addwf	___fladd@bexp,f
  5894     0FD5                     l779:
  5895     0FD5  0A74               	incf	___fladd@bexp,w
  5896     0FD6  1903               	btfsc	3,2
  5897     0FD7  2FD9               	goto	u4001
  5898     0FD8  2FDA               	goto	u4000
  5899     0FD9                     u4001:
  5900     0FD9  2FDF               	goto	l3170
  5901     0FDA                     u4000:
  5902     0FDA                     l3168:
  5903     0FDA  0874               	movf	___fladd@bexp,w
  5904     0FDB  1D03               	btfss	3,2
  5905     0FDC  2FDE               	goto	u4011
  5906     0FDD  2FDF               	goto	u4010
  5907     0FDE                     u4011:
  5908     0FDE  2FED               	goto	l3176
  5909     0FDF                     u4010:
  5910     0FDF                     l3170:
  5911     0FDF  3000               	movlw	0
  5912     0FE0  00A3               	movwf	___fladd@b+3
  5913     0FE1  3000               	movlw	0
  5914     0FE2  00A2               	movwf	___fladd@b+2
  5915     0FE3  3000               	movlw	0
  5916     0FE4  00A1               	movwf	___fladd@b+1
  5917     0FE5  3000               	movlw	0
  5918     0FE6  00A0               	movwf	___fladd@b
  5919     0FE7                     l3172:
  5920     0FE7  0874               	movf	___fladd@bexp,w
  5921     0FE8  1D03               	btfss	3,2
  5922     0FE9  2FEB               	goto	u4021
  5923     0FEA  2FEC               	goto	u4020
  5924     0FEB                     u4021:
  5925     0FEB  2FED               	goto	l3176
  5926     0FEC                     u4020:
  5927     0FEC                     l3174:
  5928     0FEC  01F2               	clrf	___fladd@signs
  5929     0FED                     l3176:
  5930     0FED  1C74               	btfss	___fladd@bexp,0
  5931     0FEE  2FF0               	goto	u4031
  5932     0FEF  2FF1               	goto	u4030
  5933     0FF0                     u4031:
  5934     0FF0  2FF3               	goto	l3180
  5935     0FF1                     u4030:
  5936     0FF1                     l3178:
  5937     0FF1  17A2               	bsf	___fladd@b+2,7
  5938     0FF2  2FF5               	goto	l787
  5939     0FF3                     l3180:
  5940     0FF3  307F               	movlw	127
  5941     0FF4  05A2               	andwf	___fladd@b+2,f
  5942     0FF5                     l787:
  5943     0FF5  0874               	movf	___fladd@bexp,w
  5944     0FF6  00A8               	movwf	??___fladd
  5945     0FF7  1003               	clrc
  5946     0FF8  0C28               	rrf	??___fladd,w
  5947     0FF9  00A3               	movwf	___fladd@b+3
  5948     0FFA                     l3182:
  5949     0FFA  1FF2               	btfss	___fladd@signs,7
  5950     0FFB  2FFD               	goto	u4041
  5951     0FFC  2FFE               	goto	u4040
  5952     0FFD                     u4041:
  5953     0FFD  2FFF               	goto	l788
  5954     0FFE                     u4040:
  5955     0FFE                     l3184:
  5956     0FFE  17A3               	bsf	___fladd@b+3,7
  5957     0FFF                     l788:
  5958     0FFF                     l758:
  5959     0FFF  0008               	return
  5960     1000                     __end_of___fladd:
  5961                           
  5962                           	psect	text11
  5963     0421                     __ptext11:	
  5964 ;; *************** function ___flmul *****************
  5965 ;; Defined at:
  5966 ;;		line 8 in file "C:\Program Files\Microchip\xc8\v3.00\pic\sources\c99\common\sprcmul.c"
  5967 ;; Parameters:    Size  Location     Type
  5968 ;;  b               4   10[BANK0 ] unsigned char 
  5969 ;;  a               4   14[BANK0 ] unsigned char 
  5970 ;; Auto vars:     Size  Location     Type
  5971 ;;  prod            4   30[BANK0 ] struct .
  5972 ;;  grs             4   25[BANK0 ] unsigned long 
  5973 ;;  temp            2   34[BANK0 ] struct .
  5974 ;;  bexp            1   29[BANK0 ] unsigned char 
  5975 ;;  aexp            1   24[BANK0 ] unsigned char 
  5976 ;;  sign            1   23[BANK0 ] unsigned char 
  5977 ;; Return value:  Size  Location     Type
  5978 ;;                  4   10[BANK0 ] unsigned char 
  5979 ;; Registers used:
  5980 ;;		wreg, status,2, status,0, btemp+1, pclath, cstack
  5981 ;; Tracked objects:
  5982 ;;		On entry : 0/0
  5983 ;;		On exit  : 0/0
  5984 ;;		Unchanged: 0/0
  5985 ;; Data sizes:     COMMON   BANK0   BANK1   BANK3   BANK2
  5986 ;;      Params:         0       8       0       0       0
  5987 ;;      Locals:         0      13       0       0       0
  5988 ;;      Temps:          0       5       0       0       0
  5989 ;;      Totals:         0      26       0       0       0
  5990 ;;Total ram usage:       26 bytes
  5991 ;; Hardware stack levels used: 1
  5992 ;; Hardware stack levels required when called: 2
  5993 ;; This function calls:
  5994 ;;		__Umul8_16
  5995 ;; This function is called by:
  5996 ;;		_run_program
  5997 ;; This function uses a non-reentrant model
  5998 ;;
  5999                           
  6000     0421                     ___flmul:	
  6001                           ;psect for function ___flmul
  6002                           
  6003     0421                     l3392:	
  6004                           ;incstack = 0
  6005                           ; Regs used in ___flmul: [wreg+status,2+status,0+btemp+1+pclath+cstack]
  6006                           
  6007     0421  1283               	bcf	3,5	;RP0=0, select bank0
  6008     0422  1303               	bcf	3,6	;RP1=0, select bank0
  6009     0423  082D               	movf	___flmul@b+3,w
  6010     0424  00B7               	movwf	___flmul@sign
  6011     0425                     l3394:
  6012     0425  3080               	movlw	128
  6013     0426  05B7               	andwf	___flmul@sign,f
  6014     0427                     l3396:
  6015     0427  082D               	movf	___flmul@b+3,w
  6016     0428  00B2               	movwf	??___flmul
  6017     0429  0732               	addwf	??___flmul,w
  6018     042A  00BD               	movwf	___flmul@bexp
  6019     042B                     l3398:
  6020     042B  1FAC               	btfss	___flmul@b+2,7
  6021     042C  2C2E               	goto	u4481
  6022     042D  2C2F               	goto	u4480
  6023     042E                     u4481:
  6024     042E  2C30               	goto	l3402
  6025     042F                     u4480:
  6026     042F                     l3400:
  6027     042F  143D               	bsf	___flmul@bexp,0
  6028     0430                     l3402:
  6029     0430  083D               	movf	___flmul@bexp,w
  6030     0431  1903               	btfsc	3,2
  6031     0432  2C34               	goto	u4491
  6032     0433  2C35               	goto	u4490
  6033     0434                     u4491:
  6034     0434  2C44               	goto	l3410
  6035     0435                     u4490:
  6036     0435                     l3404:
  6037     0435  0A3D               	incf	___flmul@bexp,w
  6038     0436  1D03               	btfss	3,2
  6039     0437  2C39               	goto	u4501
  6040     0438  2C3A               	goto	u4500
  6041     0439                     u4501:
  6042     0439  2C42               	goto	l3408
  6043     043A                     u4500:
  6044     043A                     l3406:
  6045     043A  3000               	movlw	0
  6046     043B  00AD               	movwf	___flmul@b+3
  6047     043C  3000               	movlw	0
  6048     043D  00AC               	movwf	___flmul@b+2
  6049     043E  3000               	movlw	0
  6050     043F  00AB               	movwf	___flmul@b+1
  6051     0440  3000               	movlw	0
  6052     0441  00AA               	movwf	___flmul@b
  6053     0442                     l3408:
  6054     0442  17AC               	bsf	___flmul@b+2,7
  6055     0443  2C4C               	goto	l3412
  6056     0444                     l3410:
  6057     0444  3000               	movlw	0
  6058     0445  00AD               	movwf	___flmul@b+3
  6059     0446  3000               	movlw	0
  6060     0447  00AC               	movwf	___flmul@b+2
  6061     0448  3000               	movlw	0
  6062     0449  00AB               	movwf	___flmul@b+1
  6063     044A  3000               	movlw	0
  6064     044B  00AA               	movwf	___flmul@b
  6065     044C                     l3412:
  6066     044C  0831               	movf	___flmul@a+3,w
  6067     044D  3980               	andlw	128
  6068     044E  06B7               	xorwf	___flmul@sign,f
  6069     044F                     l3414:
  6070     044F  0831               	movf	___flmul@a+3,w
  6071     0450  00B2               	movwf	??___flmul
  6072     0451  0732               	addwf	??___flmul,w
  6073     0452  00B8               	movwf	___flmul@aexp
  6074     0453                     l3416:
  6075     0453  1FB0               	btfss	___flmul@a+2,7
  6076     0454  2C56               	goto	u4511
  6077     0455  2C57               	goto	u4510
  6078     0456                     u4511:
  6079     0456  2C58               	goto	l3420
  6080     0457                     u4510:
  6081     0457                     l3418:
  6082     0457  1438               	bsf	___flmul@aexp,0
  6083     0458                     l3420:
  6084     0458  0838               	movf	___flmul@aexp,w
  6085     0459  1903               	btfsc	3,2
  6086     045A  2C5C               	goto	u4521
  6087     045B  2C5D               	goto	u4520
  6088     045C                     u4521:
  6089     045C  2C6C               	goto	l3428
  6090     045D                     u4520:
  6091     045D                     l3422:
  6092     045D  0A38               	incf	___flmul@aexp,w
  6093     045E  1D03               	btfss	3,2
  6094     045F  2C61               	goto	u4531
  6095     0460  2C62               	goto	u4530
  6096     0461                     u4531:
  6097     0461  2C6A               	goto	l3426
  6098     0462                     u4530:
  6099     0462                     l3424:
  6100     0462  3000               	movlw	0
  6101     0463  00B1               	movwf	___flmul@a+3
  6102     0464  3000               	movlw	0
  6103     0465  00B0               	movwf	___flmul@a+2
  6104     0466  3000               	movlw	0
  6105     0467  00AF               	movwf	___flmul@a+1
  6106     0468  3000               	movlw	0
  6107     0469  00AE               	movwf	___flmul@a
  6108     046A                     l3426:
  6109     046A  17B0               	bsf	___flmul@a+2,7
  6110     046B  2C74               	goto	l3430
  6111     046C                     l3428:
  6112     046C  3000               	movlw	0
  6113     046D  00B1               	movwf	___flmul@a+3
  6114     046E  3000               	movlw	0
  6115     046F  00B0               	movwf	___flmul@a+2
  6116     0470  3000               	movlw	0
  6117     0471  00AF               	movwf	___flmul@a+1
  6118     0472  3000               	movlw	0
  6119     0473  00AE               	movwf	___flmul@a
  6120     0474                     l3430:
  6121     0474  0838               	movf	___flmul@aexp,w
  6122     0475  1903               	btfsc	3,2
  6123     0476  2C78               	goto	u4541
  6124     0477  2C79               	goto	u4540
  6125     0478                     u4541:
  6126     0478  2C7E               	goto	l3434
  6127     0479                     u4540:
  6128     0479                     l3432:
  6129     0479  083D               	movf	___flmul@bexp,w
  6130     047A  1D03               	btfss	3,2
  6131     047B  2C7D               	goto	u4551
  6132     047C  2C7E               	goto	u4550
  6133     047D                     u4551:
  6134     047D  2C87               	goto	l3438
  6135     047E                     u4550:
  6136     047E                     l3434:
  6137     047E  3000               	movlw	0
  6138     047F  00AD               	movwf	?___flmul+3
  6139     0480  3000               	movlw	0
  6140     0481  00AC               	movwf	?___flmul+2
  6141     0482  3000               	movlw	0
  6142     0483  00AB               	movwf	?___flmul+1
  6143     0484  3000               	movlw	0
  6144     0485  00AA               	movwf	?___flmul
  6145     0486  2F62               	goto	l841
  6146     0487                     l3438:
  6147     0487  082A               	movf	___flmul@b,w
  6148     0488  00F2               	movwf	__Umul8_16@multiplicand
  6149     0489  0830               	movf	___flmul@a+2,w
  6150     048A  160A  118A  24D7  120A  118A  	fcall	__Umul8_16
  6151     048F  0873               	movf	?__Umul8_16+1,w
  6152     0490  1283               	bcf	3,5	;RP0=0, select bank0
  6153     0491  1303               	bcf	3,6	;RP1=0, select bank0
  6154     0492  00C3               	movwf	___flmul@temp+1
  6155     0493  0872               	movf	?__Umul8_16,w
  6156     0494  00C2               	movwf	___flmul@temp
  6157     0495                     l3440:
  6158     0495  0842               	movf	___flmul@temp,w
  6159     0496  00B2               	movwf	??___flmul
  6160     0497  01B3               	clrf	??___flmul+1
  6161     0498  01B4               	clrf	??___flmul+2
  6162     0499  01B5               	clrf	??___flmul+3
  6163     049A  0835               	movf	??___flmul+3,w
  6164     049B  00BC               	movwf	___flmul@grs+3
  6165     049C  0834               	movf	??___flmul+2,w
  6166     049D  00BB               	movwf	___flmul@grs+2
  6167     049E  0833               	movf	??___flmul+1,w
  6168     049F  00BA               	movwf	___flmul@grs+1
  6169     04A0  0832               	movf	??___flmul,w
  6170     04A1  00B9               	movwf	___flmul@grs
  6171     04A2                     l3442:
  6172     04A2  0843               	movf	___flmul@temp+1,w
  6173     04A3  00B2               	movwf	??___flmul
  6174     04A4  01B3               	clrf	??___flmul+1
  6175     04A5  01B4               	clrf	??___flmul+2
  6176     04A6  01B5               	clrf	??___flmul+3
  6177     04A7  0835               	movf	??___flmul+3,w
  6178     04A8  00C1               	movwf	___flmul@prod+3
  6179     04A9  0834               	movf	??___flmul+2,w
  6180     04AA  00C0               	movwf	___flmul@prod+2
  6181     04AB  0833               	movf	??___flmul+1,w
  6182     04AC  00BF               	movwf	___flmul@prod+1
  6183     04AD  0832               	movf	??___flmul,w
  6184     04AE  00BE               	movwf	___flmul@prod
  6185     04AF  082B               	movf	___flmul@b+1,w
  6186     04B0  00F2               	movwf	__Umul8_16@multiplicand
  6187     04B1  082F               	movf	___flmul@a+1,w
  6188     04B2  160A  118A  24D7  120A  118A  	fcall	__Umul8_16
  6189     04B7  0873               	movf	?__Umul8_16+1,w
  6190     04B8  1283               	bcf	3,5	;RP0=0, select bank0
  6191     04B9  1303               	bcf	3,6	;RP1=0, select bank0
  6192     04BA  00C3               	movwf	___flmul@temp+1
  6193     04BB  0872               	movf	?__Umul8_16,w
  6194     04BC  00C2               	movwf	___flmul@temp
  6195     04BD                     l3444:
  6196     04BD  0842               	movf	___flmul@temp,w
  6197     04BE  00B2               	movwf	??___flmul
  6198     04BF  01B3               	clrf	??___flmul+1
  6199     04C0  01B4               	clrf	??___flmul+2
  6200     04C1  01B5               	clrf	??___flmul+3
  6201     04C2  0832               	movf	??___flmul,w
  6202     04C3  07B9               	addwf	___flmul@grs,f
  6203     04C4  0833               	movf	??___flmul+1,w
  6204     04C5  1103               	clrz
  6205     04C6  1803               	skipnc
  6206     04C7  3E01               	addlw	1
  6207     04C8  1903               	skipnz
  6208     04C9  2CCB               	goto	u4561
  6209     04CA  07BA               	addwf	___flmul@grs+1,f
  6210     04CB                     u4561:
  6211     04CB  0834               	movf	??___flmul+2,w
  6212     04CC  1103               	clrz
  6213     04CD  1803               	skipnc
  6214     04CE  3E01               	addlw	1
  6215     04CF  1903               	skipnz
  6216     04D0  2CD2               	goto	u4562
  6217     04D1  07BB               	addwf	___flmul@grs+2,f
  6218     04D2                     u4562:
  6219     04D2  0835               	movf	??___flmul+3,w
  6220     04D3  1103               	clrz
  6221     04D4  1803               	skipnc
  6222     04D5  3E01               	addlw	1
  6223     04D6  1903               	skipnz
  6224     04D7  2CD9               	goto	u4563
  6225     04D8  07BC               	addwf	___flmul@grs+3,f
  6226     04D9                     u4563:
  6227     04D9                     l3446:
  6228     04D9  0843               	movf	___flmul@temp+1,w
  6229     04DA  00B2               	movwf	??___flmul
  6230     04DB  01B3               	clrf	??___flmul+1
  6231     04DC  01B4               	clrf	??___flmul+2
  6232     04DD  01B5               	clrf	??___flmul+3
  6233     04DE  0832               	movf	??___flmul,w
  6234     04DF  07BE               	addwf	___flmul@prod,f
  6235     04E0  0833               	movf	??___flmul+1,w
  6236     04E1  1103               	clrz
  6237     04E2  1803               	skipnc
  6238     04E3  3E01               	addlw	1
  6239     04E4  1903               	skipnz
  6240     04E5  2CE7               	goto	u4571
  6241     04E6  07BF               	addwf	___flmul@prod+1,f
  6242     04E7                     u4571:
  6243     04E7  0834               	movf	??___flmul+2,w
  6244     04E8  1103               	clrz
  6245     04E9  1803               	skipnc
  6246     04EA  3E01               	addlw	1
  6247     04EB  1903               	skipnz
  6248     04EC  2CEE               	goto	u4572
  6249     04ED  07C0               	addwf	___flmul@prod+2,f
  6250     04EE                     u4572:
  6251     04EE  0835               	movf	??___flmul+3,w
  6252     04EF  1103               	clrz
  6253     04F0  1803               	skipnc
  6254     04F1  3E01               	addlw	1
  6255     04F2  1903               	skipnz
  6256     04F3  2CF5               	goto	u4573
  6257     04F4  07C1               	addwf	___flmul@prod+3,f
  6258     04F5                     u4573:
  6259     04F5  082C               	movf	___flmul@b+2,w
  6260     04F6  00F2               	movwf	__Umul8_16@multiplicand
  6261     04F7  082E               	movf	___flmul@a,w
  6262     04F8  160A  118A  24D7  120A  118A  	fcall	__Umul8_16
  6263     04FD  0873               	movf	?__Umul8_16+1,w
  6264     04FE  1283               	bcf	3,5	;RP0=0, select bank0
  6265     04FF  1303               	bcf	3,6	;RP1=0, select bank0
  6266     0500  00C3               	movwf	___flmul@temp+1
  6267     0501  0872               	movf	?__Umul8_16,w
  6268     0502  00C2               	movwf	___flmul@temp
  6269     0503                     l3448:
  6270     0503  0842               	movf	___flmul@temp,w
  6271     0504  00B2               	movwf	??___flmul
  6272     0505  01B3               	clrf	??___flmul+1
  6273     0506  01B4               	clrf	??___flmul+2
  6274     0507  01B5               	clrf	??___flmul+3
  6275     0508  0832               	movf	??___flmul,w
  6276     0509  07B9               	addwf	___flmul@grs,f
  6277     050A  0833               	movf	??___flmul+1,w
  6278     050B  1103               	clrz
  6279     050C  1803               	skipnc
  6280     050D  3E01               	addlw	1
  6281     050E  1903               	skipnz
  6282     050F  2D11               	goto	u4581
  6283     0510  07BA               	addwf	___flmul@grs+1,f
  6284     0511                     u4581:
  6285     0511  0834               	movf	??___flmul+2,w
  6286     0512  1103               	clrz
  6287     0513  1803               	skipnc
  6288     0514  3E01               	addlw	1
  6289     0515  1903               	skipnz
  6290     0516  2D18               	goto	u4582
  6291     0517  07BB               	addwf	___flmul@grs+2,f
  6292     0518                     u4582:
  6293     0518  0835               	movf	??___flmul+3,w
  6294     0519  1103               	clrz
  6295     051A  1803               	skipnc
  6296     051B  3E01               	addlw	1
  6297     051C  1903               	skipnz
  6298     051D  2D1F               	goto	u4583
  6299     051E  07BC               	addwf	___flmul@grs+3,f
  6300     051F                     u4583:
  6301     051F                     l3450:
  6302     051F  0843               	movf	___flmul@temp+1,w
  6303     0520  00B2               	movwf	??___flmul
  6304     0521  01B3               	clrf	??___flmul+1
  6305     0522  01B4               	clrf	??___flmul+2
  6306     0523  01B5               	clrf	??___flmul+3
  6307     0524  0832               	movf	??___flmul,w
  6308     0525  07BE               	addwf	___flmul@prod,f
  6309     0526  0833               	movf	??___flmul+1,w
  6310     0527  1103               	clrz
  6311     0528  1803               	skipnc
  6312     0529  3E01               	addlw	1
  6313     052A  1903               	skipnz
  6314     052B  2D2D               	goto	u4591
  6315     052C  07BF               	addwf	___flmul@prod+1,f
  6316     052D                     u4591:
  6317     052D  0834               	movf	??___flmul+2,w
  6318     052E  1103               	clrz
  6319     052F  1803               	skipnc
  6320     0530  3E01               	addlw	1
  6321     0531  1903               	skipnz
  6322     0532  2D34               	goto	u4592
  6323     0533  07C0               	addwf	___flmul@prod+2,f
  6324     0534                     u4592:
  6325     0534  0835               	movf	??___flmul+3,w
  6326     0535  1103               	clrz
  6327     0536  1803               	skipnc
  6328     0537  3E01               	addlw	1
  6329     0538  1903               	skipnz
  6330     0539  2D3B               	goto	u4593
  6331     053A  07C1               	addwf	___flmul@prod+3,f
  6332     053B                     u4593:
  6333     053B                     l3452:
  6334     053B  3008               	movlw	8
  6335     053C  00B2               	movwf	??___flmul
  6336     053D                     u4605:
  6337     053D  1003               	clrc
  6338     053E  0DB9               	rlf	___flmul@grs,f
  6339     053F  0DBA               	rlf	___flmul@grs+1,f
  6340     0540  0DBB               	rlf	___flmul@grs+2,f
  6341     0541  0DBC               	rlf	___flmul@grs+3,f
  6342     0542  0BB2               	decfsz	??___flmul,f
  6343     0543  2D3D               	goto	u4605
  6344     0544                     l3454:
  6345     0544  082B               	movf	___flmul@b+1,w
  6346     0545  00F2               	movwf	__Umul8_16@multiplicand
  6347     0546  082E               	movf	___flmul@a,w
  6348     0547  160A  118A  24D7  120A  118A  	fcall	__Umul8_16
  6349     054C  0873               	movf	?__Umul8_16+1,w
  6350     054D  1283               	bcf	3,5	;RP0=0, select bank0
  6351     054E  1303               	bcf	3,6	;RP1=0, select bank0
  6352     054F  00C3               	movwf	___flmul@temp+1
  6353     0550  0872               	movf	?__Umul8_16,w
  6354     0551  00C2               	movwf	___flmul@temp
  6355     0552                     l3456:
  6356     0552  0842               	movf	___flmul@temp,w
  6357     0553  00B2               	movwf	??___flmul
  6358     0554  0843               	movf	___flmul@temp+1,w
  6359     0555  00B3               	movwf	??___flmul+1
  6360     0556  01B4               	clrf	??___flmul+2
  6361     0557  01B5               	clrf	??___flmul+3
  6362     0558  0832               	movf	??___flmul,w
  6363     0559  07B9               	addwf	___flmul@grs,f
  6364     055A  0833               	movf	??___flmul+1,w
  6365     055B  1103               	clrz
  6366     055C  1803               	skipnc
  6367     055D  3E01               	addlw	1
  6368     055E  1903               	skipnz
  6369     055F  2D61               	goto	u4611
  6370     0560  07BA               	addwf	___flmul@grs+1,f
  6371     0561                     u4611:
  6372     0561  0834               	movf	??___flmul+2,w
  6373     0562  1103               	clrz
  6374     0563  1803               	skipnc
  6375     0564  3E01               	addlw	1
  6376     0565  1903               	skipnz
  6377     0566  2D68               	goto	u4612
  6378     0567  07BB               	addwf	___flmul@grs+2,f
  6379     0568                     u4612:
  6380     0568  0835               	movf	??___flmul+3,w
  6381     0569  1103               	clrz
  6382     056A  1803               	skipnc
  6383     056B  3E01               	addlw	1
  6384     056C  1903               	skipnz
  6385     056D  2D6F               	goto	u4613
  6386     056E  07BC               	addwf	___flmul@grs+3,f
  6387     056F                     u4613:
  6388     056F                     l3458:
  6389     056F  082A               	movf	___flmul@b,w
  6390     0570  00F2               	movwf	__Umul8_16@multiplicand
  6391     0571  082F               	movf	___flmul@a+1,w
  6392     0572  160A  118A  24D7  120A  118A  	fcall	__Umul8_16
  6393     0577  0873               	movf	?__Umul8_16+1,w
  6394     0578  1283               	bcf	3,5	;RP0=0, select bank0
  6395     0579  1303               	bcf	3,6	;RP1=0, select bank0
  6396     057A  00C3               	movwf	___flmul@temp+1
  6397     057B  0872               	movf	?__Umul8_16,w
  6398     057C  00C2               	movwf	___flmul@temp
  6399     057D                     l3460:
  6400     057D  0842               	movf	___flmul@temp,w
  6401     057E  00B2               	movwf	??___flmul
  6402     057F  0843               	movf	___flmul@temp+1,w
  6403     0580  00B3               	movwf	??___flmul+1
  6404     0581  01B4               	clrf	??___flmul+2
  6405     0582  01B5               	clrf	??___flmul+3
  6406     0583  0832               	movf	??___flmul,w
  6407     0584  07B9               	addwf	___flmul@grs,f
  6408     0585  0833               	movf	??___flmul+1,w
  6409     0586  1103               	clrz
  6410     0587  1803               	skipnc
  6411     0588  3E01               	addlw	1
  6412     0589  1903               	skipnz
  6413     058A  2D8C               	goto	u4621
  6414     058B  07BA               	addwf	___flmul@grs+1,f
  6415     058C                     u4621:
  6416     058C  0834               	movf	??___flmul+2,w
  6417     058D  1103               	clrz
  6418     058E  1803               	skipnc
  6419     058F  3E01               	addlw	1
  6420     0590  1903               	skipnz
  6421     0591  2D93               	goto	u4622
  6422     0592  07BB               	addwf	___flmul@grs+2,f
  6423     0593                     u4622:
  6424     0593  0835               	movf	??___flmul+3,w
  6425     0594  1103               	clrz
  6426     0595  1803               	skipnc
  6427     0596  3E01               	addlw	1
  6428     0597  1903               	skipnz
  6429     0598  2D9A               	goto	u4623
  6430     0599  07BC               	addwf	___flmul@grs+3,f
  6431     059A                     u4623:
  6432     059A                     l3462:
  6433     059A  3008               	movlw	8
  6434     059B  00B2               	movwf	??___flmul
  6435     059C                     u4635:
  6436     059C  1003               	clrc
  6437     059D  0DB9               	rlf	___flmul@grs,f
  6438     059E  0DBA               	rlf	___flmul@grs+1,f
  6439     059F  0DBB               	rlf	___flmul@grs+2,f
  6440     05A0  0DBC               	rlf	___flmul@grs+3,f
  6441     05A1  0BB2               	decfsz	??___flmul,f
  6442     05A2  2D9C               	goto	u4635
  6443     05A3  082A               	movf	___flmul@b,w
  6444     05A4  00F2               	movwf	__Umul8_16@multiplicand
  6445     05A5  082E               	movf	___flmul@a,w
  6446     05A6  160A  118A  24D7  120A  118A  	fcall	__Umul8_16
  6447     05AB  0873               	movf	?__Umul8_16+1,w
  6448     05AC  1283               	bcf	3,5	;RP0=0, select bank0
  6449     05AD  1303               	bcf	3,6	;RP1=0, select bank0
  6450     05AE  00C3               	movwf	___flmul@temp+1
  6451     05AF  0872               	movf	?__Umul8_16,w
  6452     05B0  00C2               	movwf	___flmul@temp
  6453     05B1                     l3464:
  6454     05B1  0842               	movf	___flmul@temp,w
  6455     05B2  00B2               	movwf	??___flmul
  6456     05B3  0843               	movf	___flmul@temp+1,w
  6457     05B4  00B3               	movwf	??___flmul+1
  6458     05B5  01B4               	clrf	??___flmul+2
  6459     05B6  01B5               	clrf	??___flmul+3
  6460     05B7  0832               	movf	??___flmul,w
  6461     05B8  07B9               	addwf	___flmul@grs,f
  6462     05B9  0833               	movf	??___flmul+1,w
  6463     05BA  1103               	clrz
  6464     05BB  1803               	skipnc
  6465     05BC  3E01               	addlw	1
  6466     05BD  1903               	skipnz
  6467     05BE  2DC0               	goto	u4641
  6468     05BF  07BA               	addwf	___flmul@grs+1,f
  6469     05C0                     u4641:
  6470     05C0  0834               	movf	??___flmul+2,w
  6471     05C1  1103               	clrz
  6472     05C2  1803               	skipnc
  6473     05C3  3E01               	addlw	1
  6474     05C4  1903               	skipnz
  6475     05C5  2DC7               	goto	u4642
  6476     05C6  07BB               	addwf	___flmul@grs+2,f
  6477     05C7                     u4642:
  6478     05C7  0835               	movf	??___flmul+3,w
  6479     05C8  1103               	clrz
  6480     05C9  1803               	skipnc
  6481     05CA  3E01               	addlw	1
  6482     05CB  1903               	skipnz
  6483     05CC  2DCE               	goto	u4643
  6484     05CD  07BC               	addwf	___flmul@grs+3,f
  6485     05CE                     u4643:
  6486     05CE                     l3466:
  6487     05CE  082B               	movf	___flmul@b+1,w
  6488     05CF  00F2               	movwf	__Umul8_16@multiplicand
  6489     05D0  0830               	movf	___flmul@a+2,w
  6490     05D1  160A  118A  24D7  120A  118A  	fcall	__Umul8_16
  6491     05D6  0873               	movf	?__Umul8_16+1,w
  6492     05D7  1283               	bcf	3,5	;RP0=0, select bank0
  6493     05D8  1303               	bcf	3,6	;RP1=0, select bank0
  6494     05D9  00C3               	movwf	___flmul@temp+1
  6495     05DA  0872               	movf	?__Umul8_16,w
  6496     05DB  00C2               	movwf	___flmul@temp
  6497     05DC  0842               	movf	___flmul@temp,w
  6498     05DD  00B2               	movwf	??___flmul
  6499     05DE  0843               	movf	___flmul@temp+1,w
  6500     05DF  00B3               	movwf	??___flmul+1
  6501     05E0  01B4               	clrf	??___flmul+2
  6502     05E1  01B5               	clrf	??___flmul+3
  6503     05E2  0832               	movf	??___flmul,w
  6504     05E3  07BE               	addwf	___flmul@prod,f
  6505     05E4  0833               	movf	??___flmul+1,w
  6506     05E5  1103               	clrz
  6507     05E6  1803               	skipnc
  6508     05E7  3E01               	addlw	1
  6509     05E8  1903               	skipnz
  6510     05E9  2DEB               	goto	u4651
  6511     05EA  07BF               	addwf	___flmul@prod+1,f
  6512     05EB                     u4651:
  6513     05EB  0834               	movf	??___flmul+2,w
  6514     05EC  1103               	clrz
  6515     05ED  1803               	skipnc
  6516     05EE  3E01               	addlw	1
  6517     05EF  1903               	skipnz
  6518     05F0  2DF2               	goto	u4652
  6519     05F1  07C0               	addwf	___flmul@prod+2,f
  6520     05F2                     u4652:
  6521     05F2  0835               	movf	??___flmul+3,w
  6522     05F3  1103               	clrz
  6523     05F4  1803               	skipnc
  6524     05F5  3E01               	addlw	1
  6525     05F6  1903               	skipnz
  6526     05F7  2DF9               	goto	u4653
  6527     05F8  07C1               	addwf	___flmul@prod+3,f
  6528     05F9                     u4653:
  6529     05F9                     l3468:
  6530     05F9  082C               	movf	___flmul@b+2,w
  6531     05FA  00F2               	movwf	__Umul8_16@multiplicand
  6532     05FB  082F               	movf	___flmul@a+1,w
  6533     05FC  160A  118A  24D7  120A  118A  	fcall	__Umul8_16
  6534     0601  0873               	movf	?__Umul8_16+1,w
  6535     0602  1283               	bcf	3,5	;RP0=0, select bank0
  6536     0603  1303               	bcf	3,6	;RP1=0, select bank0
  6537     0604  00C3               	movwf	___flmul@temp+1
  6538     0605  0872               	movf	?__Umul8_16,w
  6539     0606  00C2               	movwf	___flmul@temp
  6540     0607                     l3470:
  6541     0607  0842               	movf	___flmul@temp,w
  6542     0608  00B2               	movwf	??___flmul
  6543     0609  0843               	movf	___flmul@temp+1,w
  6544     060A  00B3               	movwf	??___flmul+1
  6545     060B  01B4               	clrf	??___flmul+2
  6546     060C  01B5               	clrf	??___flmul+3
  6547     060D  0832               	movf	??___flmul,w
  6548     060E  07BE               	addwf	___flmul@prod,f
  6549     060F  0833               	movf	??___flmul+1,w
  6550     0610  1103               	clrz
  6551     0611  1803               	skipnc
  6552     0612  3E01               	addlw	1
  6553     0613  1903               	skipnz
  6554     0614  2E16               	goto	u4661
  6555     0615  07BF               	addwf	___flmul@prod+1,f
  6556     0616                     u4661:
  6557     0616  0834               	movf	??___flmul+2,w
  6558     0617  1103               	clrz
  6559     0618  1803               	skipnc
  6560     0619  3E01               	addlw	1
  6561     061A  1903               	skipnz
  6562     061B  2E1D               	goto	u4662
  6563     061C  07C0               	addwf	___flmul@prod+2,f
  6564     061D                     u4662:
  6565     061D  0835               	movf	??___flmul+3,w
  6566     061E  1103               	clrz
  6567     061F  1803               	skipnc
  6568     0620  3E01               	addlw	1
  6569     0621  1903               	skipnz
  6570     0622  2E24               	goto	u4663
  6571     0623  07C1               	addwf	___flmul@prod+3,f
  6572     0624                     u4663:
  6573     0624  082C               	movf	___flmul@b+2,w
  6574     0625  00F2               	movwf	__Umul8_16@multiplicand
  6575     0626  0830               	movf	___flmul@a+2,w
  6576     0627  160A  118A  24D7  120A  118A  	fcall	__Umul8_16
  6577     062C  0873               	movf	?__Umul8_16+1,w
  6578     062D  1283               	bcf	3,5	;RP0=0, select bank0
  6579     062E  1303               	bcf	3,6	;RP1=0, select bank0
  6580     062F  00C3               	movwf	___flmul@temp+1
  6581     0630  0872               	movf	?__Umul8_16,w
  6582     0631  00C2               	movwf	___flmul@temp
  6583     0632                     l3472:
  6584     0632  0842               	movf	___flmul@temp,w
  6585     0633  00B2               	movwf	??___flmul
  6586     0634  0843               	movf	___flmul@temp+1,w
  6587     0635  00B3               	movwf	??___flmul+1
  6588     0636  01B4               	clrf	??___flmul+2
  6589     0637  01B5               	clrf	??___flmul+3
  6590     0638  3008               	movlw	8
  6591     0639                     u4675:
  6592     0639  1003               	clrc
  6593     063A  0DB2               	rlf	??___flmul,f
  6594     063B  0DB3               	rlf	??___flmul+1,f
  6595     063C  0DB4               	rlf	??___flmul+2,f
  6596     063D  0DB5               	rlf	??___flmul+3,f
  6597     063E                     u4670:
  6598     063E  3EFF               	addlw	-1
  6599     063F  1D03               	skipz
  6600     0640  2E39               	goto	u4675
  6601     0641  0832               	movf	??___flmul,w
  6602     0642  07BE               	addwf	___flmul@prod,f
  6603     0643  0833               	movf	??___flmul+1,w
  6604     0644  1103               	clrz
  6605     0645  1803               	skipnc
  6606     0646  3E01               	addlw	1
  6607     0647  1903               	skipnz
  6608     0648  2E4A               	goto	u4681
  6609     0649  07BF               	addwf	___flmul@prod+1,f
  6610     064A                     u4681:
  6611     064A  0834               	movf	??___flmul+2,w
  6612     064B  1103               	clrz
  6613     064C  1803               	skipnc
  6614     064D  3E01               	addlw	1
  6615     064E  1903               	skipnz
  6616     064F  2E51               	goto	u4682
  6617     0650  07C0               	addwf	___flmul@prod+2,f
  6618     0651                     u4682:
  6619     0651  0835               	movf	??___flmul+3,w
  6620     0652  1103               	clrz
  6621     0653  1803               	skipnc
  6622     0654  3E01               	addlw	1
  6623     0655  1903               	skipnz
  6624     0656  2E58               	goto	u4683
  6625     0657  07C1               	addwf	___flmul@prod+3,f
  6626     0658                     u4683:
  6627     0658                     l3474:
  6628     0658  0839               	movf	___flmul@grs,w
  6629     0659  00B2               	movwf	??___flmul
  6630     065A  083A               	movf	___flmul@grs+1,w
  6631     065B  00B3               	movwf	??___flmul+1
  6632     065C  083B               	movf	___flmul@grs+2,w
  6633     065D  00B4               	movwf	??___flmul+2
  6634     065E  083C               	movf	___flmul@grs+3,w
  6635     065F  00B5               	movwf	??___flmul+3
  6636     0660  3018               	movlw	24
  6637     0661                     u4695:
  6638     0661  1003               	clrc
  6639     0662  0CB5               	rrf	??___flmul+3,f
  6640     0663  0CB4               	rrf	??___flmul+2,f
  6641     0664  0CB3               	rrf	??___flmul+1,f
  6642     0665  0CB2               	rrf	??___flmul,f
  6643     0666                     u4690:
  6644     0666  3EFF               	addlw	-1
  6645     0667  1D03               	skipz
  6646     0668  2E61               	goto	u4695
  6647     0669  0832               	movf	??___flmul,w
  6648     066A  07BE               	addwf	___flmul@prod,f
  6649     066B  0833               	movf	??___flmul+1,w
  6650     066C  1103               	clrz
  6651     066D  1803               	skipnc
  6652     066E  3E01               	addlw	1
  6653     066F  1903               	skipnz
  6654     0670  2E72               	goto	u4701
  6655     0671  07BF               	addwf	___flmul@prod+1,f
  6656     0672                     u4701:
  6657     0672  0834               	movf	??___flmul+2,w
  6658     0673  1103               	clrz
  6659     0674  1803               	skipnc
  6660     0675  3E01               	addlw	1
  6661     0676  1903               	skipnz
  6662     0677  2E79               	goto	u4702
  6663     0678  07C0               	addwf	___flmul@prod+2,f
  6664     0679                     u4702:
  6665     0679  0835               	movf	??___flmul+3,w
  6666     067A  1103               	clrz
  6667     067B  1803               	skipnc
  6668     067C  3E01               	addlw	1
  6669     067D  1903               	skipnz
  6670     067E  2E80               	goto	u4703
  6671     067F  07C1               	addwf	___flmul@prod+3,f
  6672     0680                     u4703:
  6673     0680                     l3476:
  6674     0680  3008               	movlw	8
  6675     0681  00B2               	movwf	??___flmul
  6676     0682                     u4715:
  6677     0682  1003               	clrc
  6678     0683  0DB9               	rlf	___flmul@grs,f
  6679     0684  0DBA               	rlf	___flmul@grs+1,f
  6680     0685  0DBB               	rlf	___flmul@grs+2,f
  6681     0686  0DBC               	rlf	___flmul@grs+3,f
  6682     0687  0BB2               	decfsz	??___flmul,f
  6683     0688  2E82               	goto	u4715
  6684     0689                     l3478:
  6685     0689  083D               	movf	___flmul@bexp,w
  6686     068A  0738               	addwf	___flmul@aexp,w
  6687     068B  00B2               	movwf	??___flmul
  6688     068C  01B3               	clrf	??___flmul+1
  6689     068D  0DB3               	rlf	??___flmul+1,f
  6690     068E  0832               	movf	??___flmul,w
  6691     068F  3E82               	addlw	130
  6692     0690  00C2               	movwf	___flmul@temp
  6693     0691  0833               	movf	??___flmul+1,w
  6694     0692  1803               	skipnc
  6695     0693  3E01               	addlw	1
  6696     0694  3EFF               	addlw	255
  6697     0695  00C3               	movwf	___flmul@temp+1
  6698     0696  2EB4               	goto	l3490
  6699     0697                     l3480:
  6700     0697  3001               	movlw	1
  6701     0698  00B2               	movwf	??___flmul
  6702     0699                     u4725:
  6703     0699  1003               	clrc
  6704     069A  0DBE               	rlf	___flmul@prod,f
  6705     069B  0DBF               	rlf	___flmul@prod+1,f
  6706     069C  0DC0               	rlf	___flmul@prod+2,f
  6707     069D  0DC1               	rlf	___flmul@prod+3,f
  6708     069E  0BB2               	decfsz	??___flmul,f
  6709     069F  2E99               	goto	u4725
  6710     06A0                     l3482:
  6711     06A0  1FBC               	btfss	___flmul@grs+3,7
  6712     06A1  2EA3               	goto	u4731
  6713     06A2  2EA4               	goto	u4730
  6714     06A3                     u4731:
  6715     06A3  2EA5               	goto	l3486
  6716     06A4                     u4730:
  6717     06A4                     l3484:
  6718     06A4  143E               	bsf	___flmul@prod,0
  6719     06A5                     l3486:
  6720     06A5  3001               	movlw	1
  6721     06A6  00B2               	movwf	??___flmul
  6722     06A7                     u4745:
  6723     06A7  1003               	clrc
  6724     06A8  0DB9               	rlf	___flmul@grs,f
  6725     06A9  0DBA               	rlf	___flmul@grs+1,f
  6726     06AA  0DBB               	rlf	___flmul@grs+2,f
  6727     06AB  0DBC               	rlf	___flmul@grs+3,f
  6728     06AC  0BB2               	decfsz	??___flmul,f
  6729     06AD  2EA7               	goto	u4745
  6730     06AE                     l3488:
  6731     06AE  30FF               	movlw	255
  6732     06AF  07C2               	addwf	___flmul@temp,f
  6733     06B0  1803               	skipnc
  6734     06B1  0AC3               	incf	___flmul@temp+1,f
  6735     06B2  30FF               	movlw	255
  6736     06B3  07C3               	addwf	___flmul@temp+1,f
  6737     06B4                     l3490:
  6738     06B4  1FC0               	btfss	___flmul@prod+2,7
  6739     06B5  2EB7               	goto	u4751
  6740     06B6  2EB8               	goto	u4750
  6741     06B7                     u4751:
  6742     06B7  2E97               	goto	l3480
  6743     06B8                     u4750:
  6744     06B8                     l3492:
  6745     06B8  01B8               	clrf	___flmul@aexp
  6746     06B9                     l3494:
  6747     06B9  1FBC               	btfss	___flmul@grs+3,7
  6748     06BA  2EBC               	goto	u4761
  6749     06BB  2EBD               	goto	u4760
  6750     06BC                     u4761:
  6751     06BC  2ED9               	goto	l3502
  6752     06BD                     u4760:
  6753     06BD                     l3496:
  6754     06BD  30FF               	movlw	255
  6755     06BE  0539               	andwf	___flmul@grs,w
  6756     06BF  00B2               	movwf	??___flmul
  6757     06C0  30FF               	movlw	255
  6758     06C1  053A               	andwf	___flmul@grs+1,w
  6759     06C2  00B3               	movwf	??___flmul+1
  6760     06C3  30FF               	movlw	255
  6761     06C4  053B               	andwf	___flmul@grs+2,w
  6762     06C5  00B4               	movwf	??___flmul+2
  6763     06C6  307F               	movlw	127
  6764     06C7  053C               	andwf	___flmul@grs+3,w
  6765     06C8  00B5               	movwf	??___flmul+3
  6766     06C9  0835               	movf	??___flmul+3,w
  6767     06CA  0434               	iorwf	??___flmul+2,w
  6768     06CB  0433               	iorwf	??___flmul+1,w
  6769     06CC  0432               	iorwf	??___flmul,w
  6770     06CD  1903               	skipnz
  6771     06CE  2ED0               	goto	u4771
  6772     06CF  2ED1               	goto	u4770
  6773     06D0                     u4771:
  6774     06D0  2ED4               	goto	l847
  6775     06D1                     u4770:
  6776     06D1                     l3498:
  6777     06D1  3001               	movlw	1
  6778     06D2  00B8               	movwf	___flmul@aexp
  6779     06D3  2ED9               	goto	l3502
  6780     06D4                     l847:
  6781     06D4  1C3E               	btfss	___flmul@prod,0
  6782     06D5  2ED7               	goto	u4781
  6783     06D6  2ED8               	goto	u4780
  6784     06D7                     u4781:
  6785     06D7  2ED9               	goto	l3502
  6786     06D8                     u4780:
  6787     06D8  2ED1               	goto	l3498
  6788     06D9                     l3502:
  6789     06D9  0838               	movf	___flmul@aexp,w
  6790     06DA  1903               	btfsc	3,2
  6791     06DB  2EDD               	goto	u4791
  6792     06DC  2EDE               	goto	u4790
  6793     06DD                     u4791:
  6794     06DD  2F0F               	goto	l3512
  6795     06DE                     u4790:
  6796     06DE                     l3504:
  6797     06DE  3001               	movlw	1
  6798     06DF  07BE               	addwf	___flmul@prod,f
  6799     06E0  3000               	movlw	0
  6800     06E1  1803               	skipnc
  6801     06E2  3001               	movlw	1
  6802     06E3  07BF               	addwf	___flmul@prod+1,f
  6803     06E4  3000               	movlw	0
  6804     06E5  1803               	skipnc
  6805     06E6  3001               	movlw	1
  6806     06E7  07C0               	addwf	___flmul@prod+2,f
  6807     06E8  3000               	movlw	0
  6808     06E9  1803               	skipnc
  6809     06EA  3001               	movlw	1
  6810     06EB  07C1               	addwf	___flmul@prod+3,f
  6811     06EC                     l3506:
  6812     06EC  1C41               	btfss	___flmul@prod+3,0
  6813     06ED  2EEF               	goto	u4801
  6814     06EE  2EF0               	goto	u4800
  6815     06EF                     u4801:
  6816     06EF  2F0F               	goto	l3512
  6817     06F0                     u4800:
  6818     06F0                     l3508:
  6819     06F0  083E               	movf	___flmul@prod,w
  6820     06F1  00B2               	movwf	??___flmul
  6821     06F2  083F               	movf	___flmul@prod+1,w
  6822     06F3  00B3               	movwf	??___flmul+1
  6823     06F4  0840               	movf	___flmul@prod+2,w
  6824     06F5  00B4               	movwf	??___flmul+2
  6825     06F6  0841               	movf	___flmul@prod+3,w
  6826     06F7  00B5               	movwf	??___flmul+3
  6827     06F8  3001               	movlw	1
  6828     06F9  00B6               	movwf	??___flmul+4
  6829     06FA                     u4815:
  6830     06FA  0D35               	rlf	??___flmul+3,w
  6831     06FB  0CB5               	rrf	??___flmul+3,f
  6832     06FC  0CB4               	rrf	??___flmul+2,f
  6833     06FD  0CB3               	rrf	??___flmul+1,f
  6834     06FE  0CB2               	rrf	??___flmul,f
  6835     06FF                     u4810:
  6836     06FF  0BB6               	decfsz	??___flmul+4,f
  6837     0700  2EFA               	goto	u4815
  6838     0701  0835               	movf	??___flmul+3,w
  6839     0702  00C1               	movwf	___flmul@prod+3
  6840     0703  0834               	movf	??___flmul+2,w
  6841     0704  00C0               	movwf	___flmul@prod+2
  6842     0705  0833               	movf	??___flmul+1,w
  6843     0706  00BF               	movwf	___flmul@prod+1
  6844     0707  0832               	movf	??___flmul,w
  6845     0708  00BE               	movwf	___flmul@prod
  6846     0709                     l3510:
  6847     0709  3001               	movlw	1
  6848     070A  07C2               	addwf	___flmul@temp,f
  6849     070B  1803               	skipnc
  6850     070C  0AC3               	incf	___flmul@temp+1,f
  6851     070D  3000               	movlw	0
  6852     070E  07C3               	addwf	___flmul@temp+1,f
  6853     070F                     l3512:
  6854     070F  0843               	movf	___flmul@temp+1,w
  6855     0710  3A80               	xorlw	128
  6856     0711  00FF               	movwf	btemp+1
  6857     0712  3080               	movlw	128
  6858     0713  027F               	subwf	btemp+1,w
  6859     0714  1D03               	skipz
  6860     0715  2F18               	goto	u4825
  6861     0716  30FF               	movlw	255
  6862     0717  0242               	subwf	___flmul@temp,w
  6863     0718                     u4825:
  6864     0718  1C03               	skipc
  6865     0719  2F1B               	goto	u4821
  6866     071A  2F1C               	goto	u4820
  6867     071B                     u4821:
  6868     071B  2F27               	goto	l3516
  6869     071C                     u4820:
  6870     071C                     l3514:
  6871     071C  307F               	movlw	127
  6872     071D  1283               	bcf	3,5	;RP0=0, select bank0
  6873     071E  1303               	bcf	3,6	;RP1=0, select bank0
  6874     071F  00C1               	movwf	___flmul@prod+3
  6875     0720  3080               	movlw	128
  6876     0721  00C0               	movwf	___flmul@prod+2
  6877     0722  3000               	movlw	0
  6878     0723  00BF               	movwf	___flmul@prod+1
  6879     0724  3000               	movlw	0
  6880     0725  00BE               	movwf	___flmul@prod
  6881     0726  2F58               	goto	l853
  6882     0727                     l3516:
  6883     0727  1283               	bcf	3,5	;RP0=0, select bank0
  6884     0728  1303               	bcf	3,6	;RP1=0, select bank0
  6885     0729  0843               	movf	___flmul@temp+1,w
  6886     072A  3A80               	xorlw	128
  6887     072B  00FF               	movwf	btemp+1
  6888     072C  3080               	movlw	128
  6889     072D  027F               	subwf	btemp+1,w
  6890     072E  1D03               	skipz
  6891     072F  2F32               	goto	u4835
  6892     0730  3001               	movlw	1
  6893     0731  0242               	subwf	___flmul@temp,w
  6894     0732                     u4835:
  6895     0732  1803               	skipnc
  6896     0733  2F35               	goto	u4831
  6897     0734  2F36               	goto	u4830
  6898     0735                     u4831:
  6899     0735  2F42               	goto	l3522
  6900     0736                     u4830:
  6901     0736                     l3518:
  6902     0736  3000               	movlw	0
  6903     0737  1283               	bcf	3,5	;RP0=0, select bank0
  6904     0738  1303               	bcf	3,6	;RP1=0, select bank0
  6905     0739  00C1               	movwf	___flmul@prod+3
  6906     073A  3000               	movlw	0
  6907     073B  00C0               	movwf	___flmul@prod+2
  6908     073C  3000               	movlw	0
  6909     073D  00BF               	movwf	___flmul@prod+1
  6910     073E  3000               	movlw	0
  6911     073F  00BE               	movwf	___flmul@prod
  6912     0740                     l3520:
  6913     0740  01B7               	clrf	___flmul@sign
  6914     0741  2F58               	goto	l853
  6915     0742                     l3522:
  6916     0742  1283               	bcf	3,5	;RP0=0, select bank0
  6917     0743  1303               	bcf	3,6	;RP1=0, select bank0
  6918     0744  0842               	movf	___flmul@temp,w
  6919     0745  00BD               	movwf	___flmul@bexp
  6920     0746  30FF               	movlw	255
  6921     0747  05BE               	andwf	___flmul@prod,f
  6922     0748  30FF               	movlw	255
  6923     0749  05BF               	andwf	___flmul@prod+1,f
  6924     074A  307F               	movlw	127
  6925     074B  05C0               	andwf	___flmul@prod+2,f
  6926     074C  3000               	movlw	0
  6927     074D  05C1               	andwf	___flmul@prod+3,f
  6928     074E                     l3524:
  6929     074E  1C3D               	btfss	___flmul@bexp,0
  6930     074F  2F51               	goto	u4841
  6931     0750  2F52               	goto	u4840
  6932     0751                     u4841:
  6933     0751  2F53               	goto	l3528
  6934     0752                     u4840:
  6935     0752                     l3526:
  6936     0752  17C0               	bsf	___flmul@prod+2,7
  6937     0753                     l3528:
  6938     0753  083D               	movf	___flmul@bexp,w
  6939     0754  00B2               	movwf	??___flmul
  6940     0755  1003               	clrc
  6941     0756  0C32               	rrf	??___flmul,w
  6942     0757  00C1               	movwf	___flmul@prod+3
  6943     0758                     l853:
  6944     0758  0837               	movf	___flmul@sign,w
  6945     0759  04C1               	iorwf	___flmul@prod+3,f
  6946     075A                     l3530:
  6947     075A  0841               	movf	___flmul@prod+3,w
  6948     075B  00AD               	movwf	?___flmul+3
  6949     075C  0840               	movf	___flmul@prod+2,w
  6950     075D  00AC               	movwf	?___flmul+2
  6951     075E  083F               	movf	___flmul@prod+1,w
  6952     075F  00AB               	movwf	?___flmul+1
  6953     0760  083E               	movf	___flmul@prod,w
  6954     0761  00AA               	movwf	?___flmul
  6955     0762                     l841:
  6956     0762  0008               	return
  6957     0763                     __end_of___flmul:
  6958                           
  6959                           	psect	text12
  6960     14D7                     __ptext12:	
  6961 ;; *************** function __Umul8_16 *****************
  6962 ;; Defined at:
  6963 ;;		line 4 in file "C:\Program Files\Microchip\xc8\v3.00\pic\sources\c99\common\Umul8_16.c"
  6964 ;; Parameters:    Size  Location     Type
  6965 ;;  multiplier      1    wreg     unsigned char 
  6966 ;;  multiplicand    1    2[COMMON] unsigned char 
  6967 ;; Auto vars:     Size  Location     Type
  6968 ;;  multiplier      1    4[BANK0 ] unsigned char 
  6969 ;;  word_mpld       2    2[BANK0 ] unsigned short 
  6970 ;;  product         2    0[BANK0 ] unsigned short 
  6971 ;; Return value:  Size  Location     Type
  6972 ;;                  2    2[COMMON] unsigned int 
  6973 ;; Registers used:
  6974 ;;		wreg, status,2, status,0
  6975 ;; Tracked objects:
  6976 ;;		On entry : 0/0
  6977 ;;		On exit  : 0/0
  6978 ;;		Unchanged: 0/0
  6979 ;; Data sizes:     COMMON   BANK0   BANK1   BANK3   BANK2
  6980 ;;      Params:         2       0       0       0       0
  6981 ;;      Locals:         0       5       0       0       0
  6982 ;;      Temps:          2       0       0       0       0
  6983 ;;      Totals:         4       5       0       0       0
  6984 ;;Total ram usage:        9 bytes
  6985 ;; Hardware stack levels used: 1
  6986 ;; Hardware stack levels required when called: 1
  6987 ;; This function calls:
  6988 ;;		Nothing
  6989 ;; This function is called by:
  6990 ;;		___flmul
  6991 ;; This function uses a non-reentrant model
  6992 ;;
  6993                           
  6994     14D7                     __Umul8_16:	
  6995                           ;psect for function __Umul8_16
  6996                           
  6997                           
  6998                           ;incstack = 0
  6999                           ; Regs used in __Umul8_16: [wreg+status,2+status,0]
  7000                           ;__Umul8_16@multiplier stored from wreg
  7001     14D7  1283               	bcf	3,5	;RP0=0, select bank0
  7002     14D8  1303               	bcf	3,6	;RP1=0, select bank0
  7003     14D9  00A4               	movwf	__Umul8_16@multiplier
  7004     14DA                     l3186:
  7005     14DA  01A0               	clrf	__Umul8_16@product
  7006     14DB  01A1               	clrf	__Umul8_16@product+1
  7007     14DC                     l3188:
  7008     14DC  0872               	movf	__Umul8_16@multiplicand,w
  7009     14DD  00F4               	movwf	??__Umul8_16
  7010     14DE  01F5               	clrf	??__Umul8_16+1
  7011     14DF  0874               	movf	??__Umul8_16,w
  7012     14E0  00A2               	movwf	__Umul8_16@word_mpld
  7013     14E1  0875               	movf	??__Umul8_16+1,w
  7014     14E2  00A3               	movwf	__Umul8_16@word_mpld+1
  7015     14E3                     l3190:
  7016     14E3  1C24               	btfss	__Umul8_16@multiplier,0
  7017     14E4  2CE6               	goto	u4051
  7018     14E5  2CE7               	goto	u4050
  7019     14E6                     u4051:
  7020     14E6  2CED               	goto	l860
  7021     14E7                     u4050:
  7022     14E7                     l3192:
  7023     14E7  0822               	movf	__Umul8_16@word_mpld,w
  7024     14E8  07A0               	addwf	__Umul8_16@product,f
  7025     14E9  1803               	skipnc
  7026     14EA  0AA1               	incf	__Umul8_16@product+1,f
  7027     14EB  0823               	movf	__Umul8_16@word_mpld+1,w
  7028     14EC  07A1               	addwf	__Umul8_16@product+1,f
  7029     14ED                     l860:
  7030     14ED  3001               	movlw	1
  7031     14EE                     u4065:
  7032     14EE  1003               	clrc
  7033     14EF  0DA2               	rlf	__Umul8_16@word_mpld,f
  7034     14F0  0DA3               	rlf	__Umul8_16@word_mpld+1,f
  7035     14F1  3EFF               	addlw	-1
  7036     14F2  1D03               	skipz
  7037     14F3  2CEE               	goto	u4065
  7038     14F4  1003               	clrc
  7039     14F5  0CA4               	rrf	__Umul8_16@multiplier,f
  7040     14F6                     l3194:
  7041     14F6  0824               	movf	__Umul8_16@multiplier,w
  7042     14F7  1D03               	btfss	3,2
  7043     14F8  2CFA               	goto	u4071
  7044     14F9  2CFB               	goto	u4070
  7045     14FA                     u4071:
  7046     14FA  2CE3               	goto	l3190
  7047     14FB                     u4070:
  7048     14FB                     l3196:
  7049     14FB  0821               	movf	__Umul8_16@product+1,w
  7050     14FC  00F3               	movwf	?__Umul8_16+1
  7051     14FD  0820               	movf	__Umul8_16@product,w
  7052     14FE  00F2               	movwf	?__Umul8_16
  7053     14FF                     l862:
  7054     14FF  0008               	return
  7055     1500                     __end_of__Umul8_16:
  7056                           
  7057                           	psect	text13
  7058     0874                     __ptext13:	
  7059 ;; *************** function ___flge *****************
  7060 ;; Defined at:
  7061 ;;		line 4 in file "C:\Program Files\Microchip\xc8\v3.00\pic\sources\c99\common\flge.c"
  7062 ;; Parameters:    Size  Location     Type
  7063 ;;  ff1             4   44[BANK0 ] unsigned int 
  7064 ;;  ff2             4   48[BANK0 ] unsigned int 
  7065 ;; Auto vars:     Size  Location     Type
  7066 ;;		None
  7067 ;; Return value:  Size  Location     Type
  7068 ;;		None               void
  7069 ;; Registers used:
  7070 ;;		wreg, status,2, status,0
  7071 ;; Tracked objects:
  7072 ;;		On entry : 0/0
  7073 ;;		On exit  : 0/0
  7074 ;;		Unchanged: 0/0
  7075 ;; Data sizes:     COMMON   BANK0   BANK1   BANK3   BANK2
  7076 ;;      Params:         0       8       0       0       0
  7077 ;;      Locals:         0       0       0       0       0
  7078 ;;      Temps:          0       4       0       0       0
  7079 ;;      Totals:         0      12       0       0       0
  7080 ;;Total ram usage:       12 bytes
  7081 ;; Hardware stack levels used: 1
  7082 ;; Hardware stack levels required when called: 1
  7083 ;; This function calls:
  7084 ;;		Nothing
  7085 ;; This function is called by:
  7086 ;;		_run_program
  7087 ;; This function uses a non-reentrant model
  7088 ;;
  7089                           
  7090     0874                     ___flge:	
  7091                           ;psect for function ___flge
  7092                           
  7093     0874                     l3330:	
  7094                           ;incstack = 0
  7095                           ; Regs used in ___flge: [wreg+status,2+status,0]
  7096                           
  7097     0874  3000               	movlw	0
  7098     0875  1283               	bcf	3,5	;RP0=0, select bank0
  7099     0876  1303               	bcf	3,6	;RP1=0, select bank0
  7100     0877  054C               	andwf	___flge@ff1,w
  7101     0878  00D4               	movwf	??___flge
  7102     0879  3000               	movlw	0
  7103     087A  054D               	andwf	___flge@ff1+1,w
  7104     087B  00D5               	movwf	??___flge+1
  7105     087C  3080               	movlw	128
  7106     087D  054E               	andwf	___flge@ff1+2,w
  7107     087E  00D6               	movwf	??___flge+2
  7108     087F  307F               	movlw	127
  7109     0880  054F               	andwf	___flge@ff1+3,w
  7110     0881  00D7               	movwf	??___flge+3
  7111     0882  0857               	movf	??___flge+3,w
  7112     0883  0456               	iorwf	??___flge+2,w
  7113     0884  0455               	iorwf	??___flge+1,w
  7114     0885  0454               	iorwf	??___flge,w
  7115     0886  1D03               	skipz
  7116     0887  2889               	goto	u4311
  7117     0888  288A               	goto	u4310
  7118     0889                     u4311:
  7119     0889  2892               	goto	l622
  7120     088A                     u4310:
  7121     088A                     l3332:
  7122     088A  3000               	movlw	0
  7123     088B  00CF               	movwf	___flge@ff1+3
  7124     088C  3000               	movlw	0
  7125     088D  00CE               	movwf	___flge@ff1+2
  7126     088E  3000               	movlw	0
  7127     088F  00CD               	movwf	___flge@ff1+1
  7128     0890  3000               	movlw	0
  7129     0891  00CC               	movwf	___flge@ff1
  7130     0892                     l622:
  7131     0892  3000               	movlw	0
  7132     0893  0550               	andwf	___flge@ff2,w
  7133     0894  00D4               	movwf	??___flge
  7134     0895  3000               	movlw	0
  7135     0896  0551               	andwf	___flge@ff2+1,w
  7136     0897  00D5               	movwf	??___flge+1
  7137     0898  3080               	movlw	128
  7138     0899  0552               	andwf	___flge@ff2+2,w
  7139     089A  00D6               	movwf	??___flge+2
  7140     089B  307F               	movlw	127
  7141     089C  0553               	andwf	___flge@ff2+3,w
  7142     089D  00D7               	movwf	??___flge+3
  7143     089E  0857               	movf	??___flge+3,w
  7144     089F  0456               	iorwf	??___flge+2,w
  7145     08A0  0455               	iorwf	??___flge+1,w
  7146     08A1  0454               	iorwf	??___flge,w
  7147     08A2  1D03               	skipz
  7148     08A3  28A5               	goto	u4321
  7149     08A4  28A6               	goto	u4320
  7150     08A5                     u4321:
  7151     08A5  28AE               	goto	l3336
  7152     08A6                     u4320:
  7153     08A6                     l3334:
  7154     08A6  3000               	movlw	0
  7155     08A7  00D3               	movwf	___flge@ff2+3
  7156     08A8  3000               	movlw	0
  7157     08A9  00D2               	movwf	___flge@ff2+2
  7158     08AA  3000               	movlw	0
  7159     08AB  00D1               	movwf	___flge@ff2+1
  7160     08AC  3000               	movlw	0
  7161     08AD  00D0               	movwf	___flge@ff2
  7162     08AE                     l3336:
  7163     08AE  1FCF               	btfss	___flge@ff1+3,7
  7164     08AF  28B1               	goto	u4331
  7165     08B0  28B2               	goto	u4330
  7166     08B1                     u4331:
  7167     08B1  28D6               	goto	l3340
  7168     08B2                     u4330:
  7169     08B2                     l3338:
  7170     08B2  3000               	movlw	0
  7171     08B3  00D4               	movwf	??___flge
  7172     08B4  3000               	movlw	0
  7173     08B5  00D5               	movwf	??___flge+1
  7174     08B6  3000               	movlw	0
  7175     08B7  00D6               	movwf	??___flge+2
  7176     08B8  3080               	movlw	128
  7177     08B9  00D7               	movwf	??___flge+3
  7178     08BA  084C               	movf	___flge@ff1,w
  7179     08BB  02D4               	subwf	??___flge,f
  7180     08BC  084D               	movf	___flge@ff1+1,w
  7181     08BD  1C03               	skipc
  7182     08BE  0F4D               	incfsz	___flge@ff1+1,w
  7183     08BF  28C1               	goto	u4341
  7184     08C0  28C2               	goto	u4342
  7185     08C1                     u4341:
  7186     08C1  02D5               	subwf	??___flge+1,f
  7187     08C2                     u4342:
  7188     08C2  084E               	movf	___flge@ff1+2,w
  7189     08C3  1C03               	skipc
  7190     08C4  0F4E               	incfsz	___flge@ff1+2,w
  7191     08C5  28C7               	goto	u4343
  7192     08C6  28C8               	goto	u4344
  7193     08C7                     u4343:
  7194     08C7  02D6               	subwf	??___flge+2,f
  7195     08C8                     u4344:
  7196     08C8  084F               	movf	___flge@ff1+3,w
  7197     08C9  1C03               	skipc
  7198     08CA  0F4F               	incfsz	___flge@ff1+3,w
  7199     08CB  28CD               	goto	u4345
  7200     08CC  28CE               	goto	u4346
  7201     08CD                     u4345:
  7202     08CD  02D7               	subwf	??___flge+3,f
  7203     08CE                     u4346:
  7204     08CE  0857               	movf	??___flge+3,w
  7205     08CF  00CF               	movwf	___flge@ff1+3
  7206     08D0  0856               	movf	??___flge+2,w
  7207     08D1  00CE               	movwf	___flge@ff1+2
  7208     08D2  0855               	movf	??___flge+1,w
  7209     08D3  00CD               	movwf	___flge@ff1+1
  7210     08D4  0854               	movf	??___flge,w
  7211     08D5  00CC               	movwf	___flge@ff1
  7212     08D6                     l3340:
  7213     08D6  1FD3               	btfss	___flge@ff2+3,7
  7214     08D7  28D9               	goto	u4351
  7215     08D8  28DA               	goto	u4350
  7216     08D9                     u4351:
  7217     08D9  28FE               	goto	l625
  7218     08DA                     u4350:
  7219     08DA                     l3342:
  7220     08DA  3000               	movlw	0
  7221     08DB  00D4               	movwf	??___flge
  7222     08DC  3000               	movlw	0
  7223     08DD  00D5               	movwf	??___flge+1
  7224     08DE  3000               	movlw	0
  7225     08DF  00D6               	movwf	??___flge+2
  7226     08E0  3080               	movlw	128
  7227     08E1  00D7               	movwf	??___flge+3
  7228     08E2  0850               	movf	___flge@ff2,w
  7229     08E3  02D4               	subwf	??___flge,f
  7230     08E4  0851               	movf	___flge@ff2+1,w
  7231     08E5  1C03               	skipc
  7232     08E6  0F51               	incfsz	___flge@ff2+1,w
  7233     08E7  28E9               	goto	u4361
  7234     08E8  28EA               	goto	u4362
  7235     08E9                     u4361:
  7236     08E9  02D5               	subwf	??___flge+1,f
  7237     08EA                     u4362:
  7238     08EA  0852               	movf	___flge@ff2+2,w
  7239     08EB  1C03               	skipc
  7240     08EC  0F52               	incfsz	___flge@ff2+2,w
  7241     08ED  28EF               	goto	u4363
  7242     08EE  28F0               	goto	u4364
  7243     08EF                     u4363:
  7244     08EF  02D6               	subwf	??___flge+2,f
  7245     08F0                     u4364:
  7246     08F0  0853               	movf	___flge@ff2+3,w
  7247     08F1  1C03               	skipc
  7248     08F2  0F53               	incfsz	___flge@ff2+3,w
  7249     08F3  28F5               	goto	u4365
  7250     08F4  28F6               	goto	u4366
  7251     08F5                     u4365:
  7252     08F5  02D7               	subwf	??___flge+3,f
  7253     08F6                     u4366:
  7254     08F6  0857               	movf	??___flge+3,w
  7255     08F7  00D3               	movwf	___flge@ff2+3
  7256     08F8  0856               	movf	??___flge+2,w
  7257     08F9  00D2               	movwf	___flge@ff2+2
  7258     08FA  0855               	movf	??___flge+1,w
  7259     08FB  00D1               	movwf	___flge@ff2+1
  7260     08FC  0854               	movf	??___flge,w
  7261     08FD  00D0               	movwf	___flge@ff2
  7262     08FE                     l625:
  7263     08FE  3080               	movlw	128
  7264     08FF  06CF               	xorwf	___flge@ff1+3,f
  7265     0900  3080               	movlw	128
  7266     0901  06D3               	xorwf	___flge@ff2+3,f
  7267     0902  0853               	movf	___flge@ff2+3,w
  7268     0903  024F               	subwf	___flge@ff1+3,w
  7269     0904  1D03               	skipz
  7270     0905  2910               	goto	u4375
  7271     0906  0852               	movf	___flge@ff2+2,w
  7272     0907  024E               	subwf	___flge@ff1+2,w
  7273     0908  1D03               	skipz
  7274     0909  2910               	goto	u4375
  7275     090A  0851               	movf	___flge@ff2+1,w
  7276     090B  024D               	subwf	___flge@ff1+1,w
  7277     090C  1D03               	skipz
  7278     090D  2910               	goto	u4375
  7279     090E  0850               	movf	___flge@ff2,w
  7280     090F  024C               	subwf	___flge@ff1,w
  7281     0910                     u4375:
  7282     0910  1803               	skipnc
  7283     0911  2913               	goto	u4371
  7284     0912  2914               	goto	u4370
  7285     0913                     u4371:
  7286     0913  2916               	goto	l3346
  7287     0914                     u4370:
  7288     0914                     l3344:
  7289     0914  1003               	clrc
  7290     0915  2917               	goto	l630
  7291     0916                     l3346:
  7292     0916  1403               	setc
  7293     0917                     l630:
  7294     0917  0008               	return
  7295     0918                     __end_of___flge:
  7296                           
  7297                           	psect	text14
  7298     1432                     __ptext14:	
  7299 ;; *************** function ___bmul *****************
  7300 ;; Defined at:
  7301 ;;		line 4 in file "C:\Program Files\Microchip\xc8\v3.00\pic\sources\c99\common\Umul8.c"
  7302 ;; Parameters:    Size  Location     Type
  7303 ;;  multiplier      1    wreg     unsigned char 
  7304 ;;  multiplicand    1    2[COMMON] unsigned char 
  7305 ;; Auto vars:     Size  Location     Type
  7306 ;;  multiplier      1    4[COMMON] unsigned char 
  7307 ;;  product         1    3[COMMON] unsigned char 
  7308 ;; Return value:  Size  Location     Type
  7309 ;;                  1    wreg      unsigned char 
  7310 ;; Registers used:
  7311 ;;		wreg, status,2, status,0
  7312 ;; Tracked objects:
  7313 ;;		On entry : 0/0
  7314 ;;		On exit  : 0/0
  7315 ;;		Unchanged: 0/0
  7316 ;; Data sizes:     COMMON   BANK0   BANK1   BANK3   BANK2
  7317 ;;      Params:         1       0       0       0       0
  7318 ;;      Locals:         2       0       0       0       0
  7319 ;;      Temps:          0       0       0       0       0
  7320 ;;      Totals:         3       0       0       0       0
  7321 ;;Total ram usage:        3 bytes
  7322 ;; Hardware stack levels used: 1
  7323 ;; Hardware stack levels required when called: 1
  7324 ;; This function calls:
  7325 ;;		Nothing
  7326 ;; This function is called by:
  7327 ;;		_run_program
  7328 ;; This function uses a non-reentrant model
  7329 ;;
  7330                           
  7331     1432                     ___bmul:	
  7332                           ;psect for function ___bmul
  7333                           
  7334                           
  7335                           ;incstack = 0
  7336                           ; Regs used in ___bmul: [wreg+status,2+status,0]
  7337                           ;___bmul@multiplier stored from wreg
  7338     1432  00F4               	movwf	___bmul@multiplier
  7339     1433                     l3234:
  7340     1433  01F3               	clrf	___bmul@product
  7341     1434                     l3236:
  7342     1434  1C74               	btfss	___bmul@multiplier,0
  7343     1435  2C37               	goto	u4101
  7344     1436  2C38               	goto	u4100
  7345     1437                     u4101:
  7346     1437  2C3A               	goto	l3240
  7347     1438                     u4100:
  7348     1438                     l3238:
  7349     1438  0872               	movf	___bmul@multiplicand,w
  7350     1439  07F3               	addwf	___bmul@product,f
  7351     143A                     l3240:
  7352     143A  1003               	clrc
  7353     143B  0DF2               	rlf	___bmul@multiplicand,f
  7354     143C                     l3242:
  7355     143C  1003               	clrc
  7356     143D  0CF4               	rrf	___bmul@multiplier,f
  7357     143E  0874               	movf	___bmul@multiplier,w
  7358     143F  1D03               	btfss	3,2
  7359     1440  2C42               	goto	u4111
  7360     1441  2C43               	goto	u4110
  7361     1442                     u4111:
  7362     1442  2C34               	goto	l3236
  7363     1443                     u4110:
  7364     1443                     l3244:
  7365     1443  0873               	movf	___bmul@product,w
  7366     1444                     l470:
  7367     1444  0008               	return
  7368     1445                     __end_of___bmul:
  7369                           
  7370                           	psect	text15
  7371     162B                     __ptext15:	
  7372 ;; *************** function ___awmod *****************
  7373 ;; Defined at:
  7374 ;;		line 5 in file "C:\Program Files\Microchip\xc8\v3.00\pic\sources\c99\common\awmod.c"
  7375 ;; Parameters:    Size  Location     Type
  7376 ;;  divisor         2    2[COMMON] int 
  7377 ;;  dividend        2    4[COMMON] int 
  7378 ;; Auto vars:     Size  Location     Type
  7379 ;;  sign            1    7[COMMON] unsigned char 
  7380 ;;  counter         1    6[COMMON] unsigned char 
  7381 ;; Return value:  Size  Location     Type
  7382 ;;                  2    2[COMMON] int 
  7383 ;; Registers used:
  7384 ;;		wreg, status,2, status,0
  7385 ;; Tracked objects:
  7386 ;;		On entry : 0/0
  7387 ;;		On exit  : 0/0
  7388 ;;		Unchanged: 0/0
  7389 ;; Data sizes:     COMMON   BANK0   BANK1   BANK3   BANK2
  7390 ;;      Params:         4       0       0       0       0
  7391 ;;      Locals:         2       0       0       0       0
  7392 ;;      Temps:          0       0       0       0       0
  7393 ;;      Totals:         6       0       0       0       0
  7394 ;;Total ram usage:        6 bytes
  7395 ;; Hardware stack levels used: 1
  7396 ;; Hardware stack levels required when called: 1
  7397 ;; This function calls:
  7398 ;;		Nothing
  7399 ;; This function is called by:
  7400 ;;		_water_level_screen
  7401 ;;		_run_program
  7402 ;; This function uses a non-reentrant model
  7403 ;;
  7404                           
  7405     162B                     ___awmod:	
  7406                           ;psect for function ___awmod
  7407                           
  7408     162B                     l3292:	
  7409                           ;incstack = 0
  7410                           ; Regs used in ___awmod: [wreg+status,2+status,0]
  7411                           
  7412     162B  01F7               	clrf	___awmod@sign
  7413     162C                     l3294:
  7414     162C  1FF5               	btfss	___awmod@dividend+1,7
  7415     162D  2E2F               	goto	u4221
  7416     162E  2E30               	goto	u4220
  7417     162F                     u4221:
  7418     162F  2E37               	goto	l3300
  7419     1630                     u4220:
  7420     1630                     l3296:
  7421     1630  09F4               	comf	___awmod@dividend,f
  7422     1631  09F5               	comf	___awmod@dividend+1,f
  7423     1632  0AF4               	incf	___awmod@dividend,f
  7424     1633  1903               	skipnz
  7425     1634  0AF5               	incf	___awmod@dividend+1,f
  7426     1635                     l3298:
  7427     1635  3001               	movlw	1
  7428     1636  00F7               	movwf	___awmod@sign
  7429     1637                     l3300:
  7430     1637  1FF3               	btfss	___awmod@divisor+1,7
  7431     1638  2E3A               	goto	u4231
  7432     1639  2E3B               	goto	u4230
  7433     163A                     u4231:
  7434     163A  2E40               	goto	l3304
  7435     163B                     u4230:
  7436     163B                     l3302:
  7437     163B  09F2               	comf	___awmod@divisor,f
  7438     163C  09F3               	comf	___awmod@divisor+1,f
  7439     163D  0AF2               	incf	___awmod@divisor,f
  7440     163E  1903               	skipnz
  7441     163F  0AF3               	incf	___awmod@divisor+1,f
  7442     1640                     l3304:
  7443     1640  0872               	movf	___awmod@divisor,w
  7444     1641  0473               	iorwf	___awmod@divisor+1,w
  7445     1642  1903               	btfsc	3,2
  7446     1643  2E45               	goto	u4241
  7447     1644  2E46               	goto	u4240
  7448     1645                     u4241:
  7449     1645  2E73               	goto	l3322
  7450     1646                     u4240:
  7451     1646                     l3306:
  7452     1646  3001               	movlw	1
  7453     1647  00F6               	movwf	___awmod@counter
  7454     1648  2E52               	goto	l3312
  7455     1649                     l3308:
  7456     1649  3001               	movlw	1
  7457     164A                     u4255:
  7458     164A  1003               	clrc
  7459     164B  0DF2               	rlf	___awmod@divisor,f
  7460     164C  0DF3               	rlf	___awmod@divisor+1,f
  7461     164D  3EFF               	addlw	-1
  7462     164E  1D03               	skipz
  7463     164F  2E4A               	goto	u4255
  7464     1650                     l3310:
  7465     1650  3001               	movlw	1
  7466     1651  07F6               	addwf	___awmod@counter,f
  7467     1652                     l3312:
  7468     1652  1FF3               	btfss	___awmod@divisor+1,7
  7469     1653  2E55               	goto	u4261
  7470     1654  2E56               	goto	u4260
  7471     1655                     u4261:
  7472     1655  2E49               	goto	l3308
  7473     1656                     u4260:
  7474     1656                     l3314:
  7475     1656  0873               	movf	___awmod@divisor+1,w
  7476     1657  0275               	subwf	___awmod@dividend+1,w
  7477     1658  1D03               	skipz
  7478     1659  2E5C               	goto	u4275
  7479     165A  0872               	movf	___awmod@divisor,w
  7480     165B  0274               	subwf	___awmod@dividend,w
  7481     165C                     u4275:
  7482     165C  1C03               	skipc
  7483     165D  2E5F               	goto	u4271
  7484     165E  2E60               	goto	u4270
  7485     165F                     u4271:
  7486     165F  2E66               	goto	l3318
  7487     1660                     u4270:
  7488     1660                     l3316:
  7489     1660  0872               	movf	___awmod@divisor,w
  7490     1661  02F4               	subwf	___awmod@dividend,f
  7491     1662  0873               	movf	___awmod@divisor+1,w
  7492     1663  1C03               	skipc
  7493     1664  03F5               	decf	___awmod@dividend+1,f
  7494     1665  02F5               	subwf	___awmod@dividend+1,f
  7495     1666                     l3318:
  7496     1666  3001               	movlw	1
  7497     1667                     u4285:
  7498     1667  1003               	clrc
  7499     1668  0CF3               	rrf	___awmod@divisor+1,f
  7500     1669  0CF2               	rrf	___awmod@divisor,f
  7501     166A  3EFF               	addlw	-1
  7502     166B  1D03               	skipz
  7503     166C  2E67               	goto	u4285
  7504     166D                     l3320:
  7505     166D  3001               	movlw	1
  7506     166E  02F6               	subwf	___awmod@counter,f
  7507     166F  1D03               	btfss	3,2
  7508     1670  2E72               	goto	u4291
  7509     1671  2E73               	goto	u4290
  7510     1672                     u4291:
  7511     1672  2E56               	goto	l3314
  7512     1673                     u4290:
  7513     1673                     l3322:
  7514     1673  0877               	movf	___awmod@sign,w
  7515     1674  1903               	btfsc	3,2
  7516     1675  2E77               	goto	u4301
  7517     1676  2E78               	goto	u4300
  7518     1677                     u4301:
  7519     1677  2E7D               	goto	l3326
  7520     1678                     u4300:
  7521     1678                     l3324:
  7522     1678  09F4               	comf	___awmod@dividend,f
  7523     1679  09F5               	comf	___awmod@dividend+1,f
  7524     167A  0AF4               	incf	___awmod@dividend,f
  7525     167B  1903               	skipnz
  7526     167C  0AF5               	incf	___awmod@dividend+1,f
  7527     167D                     l3326:
  7528     167D  0875               	movf	___awmod@dividend+1,w
  7529     167E  00F3               	movwf	?___awmod+1
  7530     167F  0874               	movf	___awmod@dividend,w
  7531     1680  00F2               	movwf	?___awmod
  7532     1681                     l610:
  7533     1681  0008               	return
  7534     1682                     __end_of___awmod:
  7535                           
  7536                           	psect	text16
  7537     1682                     __ptext16:	
  7538 ;; *************** function ___awdiv *****************
  7539 ;; Defined at:
  7540 ;;		line 5 in file "C:\Program Files\Microchip\xc8\v3.00\pic\sources\c99\common\awdiv.c"
  7541 ;; Parameters:    Size  Location     Type
  7542 ;;  divisor         2    2[COMMON] int 
  7543 ;;  dividend        2    4[COMMON] int 
  7544 ;; Auto vars:     Size  Location     Type
  7545 ;;  quotient        2    2[BANK0 ] int 
  7546 ;;  sign            1    1[BANK0 ] unsigned char 
  7547 ;;  counter         1    0[BANK0 ] unsigned char 
  7548 ;; Return value:  Size  Location     Type
  7549 ;;                  2    2[COMMON] int 
  7550 ;; Registers used:
  7551 ;;		wreg, status,2, status,0
  7552 ;; Tracked objects:
  7553 ;;		On entry : 0/0
  7554 ;;		On exit  : 0/0
  7555 ;;		Unchanged: 0/0
  7556 ;; Data sizes:     COMMON   BANK0   BANK1   BANK3   BANK2
  7557 ;;      Params:         4       0       0       0       0
  7558 ;;      Locals:         0       4       0       0       0
  7559 ;;      Temps:          0       0       0       0       0
  7560 ;;      Totals:         4       4       0       0       0
  7561 ;;Total ram usage:        8 bytes
  7562 ;; Hardware stack levels used: 1
  7563 ;; Hardware stack levels required when called: 1
  7564 ;; This function calls:
  7565 ;;		Nothing
  7566 ;; This function is called by:
  7567 ;;		_run_program
  7568 ;; This function uses a non-reentrant model
  7569 ;;
  7570                           
  7571     1682                     ___awdiv:	
  7572                           ;psect for function ___awdiv
  7573                           
  7574     1682                     l4056:	
  7575                           ;incstack = 0
  7576                           ; Regs used in ___awdiv: [wreg+status,2+status,0]
  7577                           
  7578     1682  1283               	bcf	3,5	;RP0=0, select bank0
  7579     1683  1303               	bcf	3,6	;RP1=0, select bank0
  7580     1684  01A1               	clrf	___awdiv@sign
  7581     1685                     l4058:
  7582     1685  1FF3               	btfss	___awdiv@divisor+1,7
  7583     1686  2E88               	goto	u5431
  7584     1687  2E89               	goto	u5430
  7585     1688                     u5431:
  7586     1688  2E90               	goto	l4064
  7587     1689                     u5430:
  7588     1689                     l4060:
  7589     1689  09F2               	comf	___awdiv@divisor,f
  7590     168A  09F3               	comf	___awdiv@divisor+1,f
  7591     168B  0AF2               	incf	___awdiv@divisor,f
  7592     168C  1903               	skipnz
  7593     168D  0AF3               	incf	___awdiv@divisor+1,f
  7594     168E                     l4062:
  7595     168E  3001               	movlw	1
  7596     168F  00A1               	movwf	___awdiv@sign
  7597     1690                     l4064:
  7598     1690  1FF5               	btfss	___awdiv@dividend+1,7
  7599     1691  2E93               	goto	u5441
  7600     1692  2E94               	goto	u5440
  7601     1693                     u5441:
  7602     1693  2E9B               	goto	l4070
  7603     1694                     u5440:
  7604     1694                     l4066:
  7605     1694  09F4               	comf	___awdiv@dividend,f
  7606     1695  09F5               	comf	___awdiv@dividend+1,f
  7607     1696  0AF4               	incf	___awdiv@dividend,f
  7608     1697  1903               	skipnz
  7609     1698  0AF5               	incf	___awdiv@dividend+1,f
  7610     1699                     l4068:
  7611     1699  3001               	movlw	1
  7612     169A  06A1               	xorwf	___awdiv@sign,f
  7613     169B                     l4070:
  7614     169B  01A2               	clrf	___awdiv@quotient
  7615     169C  01A3               	clrf	___awdiv@quotient+1
  7616     169D                     l4072:
  7617     169D  0872               	movf	___awdiv@divisor,w
  7618     169E  0473               	iorwf	___awdiv@divisor+1,w
  7619     169F  1903               	btfsc	3,2
  7620     16A0  2EA2               	goto	u5451
  7621     16A1  2EA3               	goto	u5450
  7622     16A2                     u5451:
  7623     16A2  2ED8               	goto	l4092
  7624     16A3                     u5450:
  7625     16A3                     l4074:
  7626     16A3  3001               	movlw	1
  7627     16A4  00A0               	movwf	___awdiv@counter
  7628     16A5  2EAF               	goto	l4080
  7629     16A6                     l4076:
  7630     16A6  3001               	movlw	1
  7631     16A7                     u5465:
  7632     16A7  1003               	clrc
  7633     16A8  0DF2               	rlf	___awdiv@divisor,f
  7634     16A9  0DF3               	rlf	___awdiv@divisor+1,f
  7635     16AA  3EFF               	addlw	-1
  7636     16AB  1D03               	skipz
  7637     16AC  2EA7               	goto	u5465
  7638     16AD                     l4078:
  7639     16AD  3001               	movlw	1
  7640     16AE  07A0               	addwf	___awdiv@counter,f
  7641     16AF                     l4080:
  7642     16AF  1FF3               	btfss	___awdiv@divisor+1,7
  7643     16B0  2EB2               	goto	u5471
  7644     16B1  2EB3               	goto	u5470
  7645     16B2                     u5471:
  7646     16B2  2EA6               	goto	l4076
  7647     16B3                     u5470:
  7648     16B3                     l4082:
  7649     16B3  3001               	movlw	1
  7650     16B4                     u5485:
  7651     16B4  1003               	clrc
  7652     16B5  0DA2               	rlf	___awdiv@quotient,f
  7653     16B6  0DA3               	rlf	___awdiv@quotient+1,f
  7654     16B7  3EFF               	addlw	-1
  7655     16B8  1D03               	skipz
  7656     16B9  2EB4               	goto	u5485
  7657     16BA  0873               	movf	___awdiv@divisor+1,w
  7658     16BB  0275               	subwf	___awdiv@dividend+1,w
  7659     16BC  1D03               	skipz
  7660     16BD  2EC0               	goto	u5495
  7661     16BE  0872               	movf	___awdiv@divisor,w
  7662     16BF  0274               	subwf	___awdiv@dividend,w
  7663     16C0                     u5495:
  7664     16C0  1C03               	skipc
  7665     16C1  2EC3               	goto	u5491
  7666     16C2  2EC4               	goto	u5490
  7667     16C3                     u5491:
  7668     16C3  2ECB               	goto	l4088
  7669     16C4                     u5490:
  7670     16C4                     l4084:
  7671     16C4  0872               	movf	___awdiv@divisor,w
  7672     16C5  02F4               	subwf	___awdiv@dividend,f
  7673     16C6  0873               	movf	___awdiv@divisor+1,w
  7674     16C7  1C03               	skipc
  7675     16C8  03F5               	decf	___awdiv@dividend+1,f
  7676     16C9  02F5               	subwf	___awdiv@dividend+1,f
  7677     16CA                     l4086:
  7678     16CA  1422               	bsf	___awdiv@quotient,0
  7679     16CB                     l4088:
  7680     16CB  3001               	movlw	1
  7681     16CC                     u5505:
  7682     16CC  1003               	clrc
  7683     16CD  0CF3               	rrf	___awdiv@divisor+1,f
  7684     16CE  0CF2               	rrf	___awdiv@divisor,f
  7685     16CF  3EFF               	addlw	-1
  7686     16D0  1D03               	skipz
  7687     16D1  2ECC               	goto	u5505
  7688     16D2                     l4090:
  7689     16D2  3001               	movlw	1
  7690     16D3  02A0               	subwf	___awdiv@counter,f
  7691     16D4  1D03               	btfss	3,2
  7692     16D5  2ED7               	goto	u5511
  7693     16D6  2ED8               	goto	u5510
  7694     16D7                     u5511:
  7695     16D7  2EB3               	goto	l4082
  7696     16D8                     u5510:
  7697     16D8                     l4092:
  7698     16D8  0821               	movf	___awdiv@sign,w
  7699     16D9  1903               	btfsc	3,2
  7700     16DA  2EDC               	goto	u5521
  7701     16DB  2EDD               	goto	u5520
  7702     16DC                     u5521:
  7703     16DC  2EE2               	goto	l4096
  7704     16DD                     u5520:
  7705     16DD                     l4094:
  7706     16DD  09A2               	comf	___awdiv@quotient,f
  7707     16DE  09A3               	comf	___awdiv@quotient+1,f
  7708     16DF  0AA2               	incf	___awdiv@quotient,f
  7709     16E0  1903               	skipnz
  7710     16E1  0AA3               	incf	___awdiv@quotient+1,f
  7711     16E2                     l4096:
  7712     16E2  0823               	movf	___awdiv@quotient+1,w
  7713     16E3  00F3               	movwf	?___awdiv+1
  7714     16E4  0822               	movf	___awdiv@quotient,w
  7715     16E5  00F2               	movwf	?___awdiv
  7716     16E6                     l597:
  7717     16E6  0008               	return
  7718     16E7                     __end_of___awdiv:
  7719                           
  7720                           	psect	text17
  7721     157E                     __ptext17:	
  7722 ;; *************** function _read_digital_keypad *****************
  7723 ;; Defined at:
  7724 ;;		line 9 in file "digital_keypad.c"
  7725 ;; Parameters:    Size  Location     Type
  7726 ;;  mode            1    wreg     unsigned char 
  7727 ;; Auto vars:     Size  Location     Type
  7728 ;;  mode            1    0[COMMON] unsigned char 
  7729 ;;  key             1    2[COMMON] unsigned char 
  7730 ;; Return value:  Size  Location     Type
  7731 ;;                  1    wreg      unsigned char 
  7732 ;; Registers used:
  7733 ;;		wreg, status,2, status,0
  7734 ;; Tracked objects:
  7735 ;;		On entry : 0/0
  7736 ;;		On exit  : 0/0
  7737 ;;		Unchanged: 0/0
  7738 ;; Data sizes:     COMMON   BANK0   BANK1   BANK3   BANK2
  7739 ;;      Params:         0       0       0       0       0
  7740 ;;      Locals:         1       0       0       0       0
  7741 ;;      Temps:          0       0       0       0       0
  7742 ;;      Totals:         1       0       0       0       0
  7743 ;;Total ram usage:        1 bytes
  7744 ;; Hardware stack levels used: 1
  7745 ;; Hardware stack levels required when called: 1
  7746 ;; This function calls:
  7747 ;;		Nothing
  7748 ;; This function is called by:
  7749 ;;		_main
  7750 ;; This function uses a non-reentrant model
  7751 ;;
  7752                           
  7753     157E                     _read_digital_keypad:	
  7754                           ;psect for function _read_digital_keypad
  7755                           
  7756     157E                     l3592:	
  7757                           ;incstack = 0
  7758                           ; Regs used in _read_digital_keypad: [wreg+status,2+status,0]
  7759                           
  7760                           
  7761                           ;digital_keypad.c: 10:     static unsigned char once = 1;;digital_keypad.c: 11:     stat
      +                          ic unsigned char long_press = 1;;digital_keypad.c: 12:     unsigned char key = PORTB & 0
      +                          x3F;
  7762     157E  1283               	bcf	3,5	;RP0=0, select bank0
  7763     157F  1303               	bcf	3,6	;RP1=0, select bank0
  7764     1580  0806               	movf	6,w	;volatile
  7765     1581  00F2               	movwf	read_digital_keypad@key
  7766     1582                     l3594:
  7767     1582  303F               	movlw	63
  7768     1583  05F2               	andwf	read_digital_keypad@key,f
  7769     1584                     l3596:
  7770                           
  7771                           ;digital_keypad.c: 13:     static unsigned char pre_key;;digital_keypad.c: 14:     if (k
      +                          ey != 0x3F && once)
  7772     1584  303F               	movlw	63
  7773     1585  0672               	xorwf	read_digital_keypad@key,w
  7774     1586  1903               	btfsc	3,2
  7775     1587  2D89               	goto	u4991
  7776     1588  2D8A               	goto	u4990
  7777     1589                     u4991:
  7778     1589  2D96               	goto	l3604
  7779     158A                     u4990:
  7780     158A                     l3598:
  7781     158A  1683               	bsf	3,5	;RP0=1, select bank1
  7782     158B  1303               	bcf	3,6	;RP1=0, select bank1
  7783     158C  0843               	movf	read_digital_keypad@once^(0+128),w
  7784     158D  1903               	btfsc	3,2
  7785     158E  2D90               	goto	u5001
  7786     158F  2D91               	goto	u5000
  7787     1590                     u5001:
  7788     1590  2D96               	goto	l3604
  7789     1591                     u5000:
  7790     1591                     l3600:
  7791                           
  7792                           ;digital_keypad.c: 15:     {;digital_keypad.c: 16:         once = 0;
  7793     1591  01C3               	clrf	read_digital_keypad@once^(0+128)
  7794                           
  7795                           ;digital_keypad.c: 17:         long_press = 0;
  7796     1592  01C2               	clrf	read_digital_keypad@long_press^(0+128)
  7797     1593                     l3602:
  7798                           
  7799                           ;digital_keypad.c: 18:         pre_key = key;
  7800     1593  0872               	movf	read_digital_keypad@key,w
  7801     1594  00CE               	movwf	read_digital_keypad@pre_key^(0+128)
  7802                           
  7803                           ;digital_keypad.c: 22:     } else if (key == 0x3F && !once) {
  7804     1595  2DD2               	goto	l3634
  7805     1596                     l3604:
  7806     1596  303F               	movlw	63
  7807     1597  0672               	xorwf	read_digital_keypad@key,w
  7808     1598  1D03               	btfss	3,2
  7809     1599  2D9B               	goto	u5011
  7810     159A  2D9C               	goto	u5010
  7811     159B                     u5011:
  7812     159B  2DAD               	goto	l3616
  7813     159C                     u5010:
  7814     159C                     l3606:
  7815     159C  1683               	bsf	3,5	;RP0=1, select bank1
  7816     159D  1303               	bcf	3,6	;RP1=0, select bank1
  7817     159E  0843               	movf	read_digital_keypad@once^(0+128),w
  7818     159F  1D03               	btfss	3,2
  7819     15A0  2DA2               	goto	u5021
  7820     15A1  2DA3               	goto	u5020
  7821     15A2                     u5021:
  7822     15A2  2DAD               	goto	l3616
  7823     15A3                     u5020:
  7824     15A3                     l3608:
  7825                           
  7826                           ;digital_keypad.c: 23:         once = 1;
  7827     15A3  3001               	movlw	1
  7828     15A4  00C3               	movwf	read_digital_keypad@once^(0+128)
  7829     15A5                     l3610:
  7830                           
  7831                           ;digital_keypad.c: 24:         if (long_press < 15)
  7832     15A5  300F               	movlw	15
  7833     15A6  0242               	subwf	read_digital_keypad@long_press^(0+128),w
  7834     15A7  1803               	skipnc
  7835     15A8  2DAA               	goto	u5031
  7836     15A9  2DAB               	goto	u5030
  7837     15AA                     u5031:
  7838     15AA  2DD2               	goto	l3634
  7839     15AB                     u5030:
  7840     15AB                     l3612:
  7841                           
  7842                           ;digital_keypad.c: 25:             return pre_key;
  7843     15AB  084E               	movf	read_digital_keypad@pre_key^(0+128),w
  7844     15AC  2DD3               	goto	l126
  7845     15AD                     l3616:
  7846     15AD  1683               	bsf	3,5	;RP0=1, select bank1
  7847     15AE  1303               	bcf	3,6	;RP1=0, select bank1
  7848     15AF  0843               	movf	read_digital_keypad@once^(0+128),w
  7849     15B0  1D03               	btfss	3,2
  7850     15B1  2DB3               	goto	u5041
  7851     15B2  2DB4               	goto	u5040
  7852     15B3                     u5041:
  7853     15B3  2DBD               	goto	l3622
  7854     15B4                     u5040:
  7855     15B4                     l3618:
  7856     15B4  3010               	movlw	16
  7857     15B5  0242               	subwf	read_digital_keypad@long_press^(0+128),w
  7858     15B6  1803               	skipnc
  7859     15B7  2DB9               	goto	u5051
  7860     15B8  2DBA               	goto	u5050
  7861     15B9                     u5051:
  7862     15B9  2DBD               	goto	l3622
  7863     15BA                     u5050:
  7864     15BA                     l3620:
  7865                           
  7866                           ;digital_keypad.c: 27:         long_press++;
  7867     15BA  3001               	movlw	1
  7868     15BB  07C2               	addwf	read_digital_keypad@long_press^(0+128),f
  7869                           
  7870                           ;digital_keypad.c: 28:     } else if (!once && long_press == 16 && key == 0x37) {
  7871     15BC  2DD2               	goto	l3634
  7872     15BD                     l3622:
  7873     15BD  0843               	movf	read_digital_keypad@once^(0+128),w
  7874     15BE  1D03               	btfss	3,2
  7875     15BF  2DC1               	goto	u5061
  7876     15C0  2DC2               	goto	u5060
  7877     15C1                     u5061:
  7878     15C1  2DD2               	goto	l127
  7879     15C2                     u5060:
  7880     15C2                     l3624:
  7881     15C2  3010               	movlw	16
  7882     15C3  0642               	xorwf	read_digital_keypad@long_press^(0+128),w
  7883     15C4  1D03               	btfss	3,2
  7884     15C5  2DC7               	goto	u5071
  7885     15C6  2DC8               	goto	u5070
  7886     15C7                     u5071:
  7887     15C7  2DD2               	goto	l127
  7888     15C8                     u5070:
  7889     15C8                     l3626:
  7890     15C8  3037               	movlw	55
  7891     15C9  0672               	xorwf	read_digital_keypad@key,w
  7892     15CA  1D03               	btfss	3,2
  7893     15CB  2DCD               	goto	u5081
  7894     15CC  2DCE               	goto	u5080
  7895     15CD                     u5081:
  7896     15CD  2DD2               	goto	l127
  7897     15CE                     u5080:
  7898     15CE                     l3628:
  7899                           
  7900                           ;digital_keypad.c: 29:         long_press++;
  7901     15CE  3001               	movlw	1
  7902     15CF  07C2               	addwf	read_digital_keypad@long_press^(0+128),f
  7903     15D0                     l3630:
  7904                           
  7905                           ;digital_keypad.c: 30:         return 0x99;
  7906     15D0  3099               	movlw	153
  7907     15D1  2DD3               	goto	l126
  7908     15D2                     l127:
  7909     15D2                     l3634:
  7910                           
  7911                           ;digital_keypad.c: 34:     return 0x3F;
  7912     15D2  303F               	movlw	63
  7913     15D3                     l126:
  7914     15D3  0008               	return
  7915     15D4                     __end_of_read_digital_keypad:
  7916                           
  7917                           	psect	text18
  7918     0763                     __ptext18:	
  7919 ;; *************** function _power_on_screen *****************
  7920 ;; Defined at:
  7921 ;;		line 20 in file "washing_machine_function_def.c"
  7922 ;; Parameters:    Size  Location     Type
  7923 ;;		None
  7924 ;; Auto vars:     Size  Location     Type
  7925 ;;  i               2   10[BANK0 ] unsigned int 
  7926 ;;  i               2    8[BANK0 ] unsigned int 
  7927 ;; Return value:  Size  Location     Type
  7928 ;;                  1    wreg      void 
  7929 ;; Registers used:
  7930 ;;		wreg, fsr0l, fsr0h, status,2, status,0, btemp+1, pclath, cstack
  7931 ;; Tracked objects:
  7932 ;;		On entry : 0/0
  7933 ;;		On exit  : 0/0
  7934 ;;		Unchanged: 0/0
  7935 ;; Data sizes:     COMMON   BANK0   BANK1   BANK3   BANK2
  7936 ;;      Params:         0       0       0       0       0
  7937 ;;      Locals:         0       4       0       0       0
  7938 ;;      Temps:          0       3       0       0       0
  7939 ;;      Totals:         0       7       0       0       0
  7940 ;;Total ram usage:        7 bytes
  7941 ;; Hardware stack levels used: 1
  7942 ;; Hardware stack levels required when called: 3
  7943 ;; This function calls:
  7944 ;;		_clcd_print
  7945 ;;		_clcd_putch
  7946 ;; This function is called by:
  7947 ;;		_main
  7948 ;; This function uses a non-reentrant model
  7949 ;;
  7950                           
  7951     0763                     _power_on_screen:	
  7952                           ;psect for function _power_on_screen
  7953                           
  7954     0763                     l3638:	
  7955                           ;incstack = 0
  7956                           ; Regs used in _power_on_screen: [wreg-fsr0h+status,2+status,0+btemp+1+pclath+cstack]
  7957                           
  7958                           
  7959                           ;washing_machine_function_def.c: 21:     for (unsigned int i = 0; i < 16; i++) {
  7960     0763  1283               	bcf	3,5	;RP0=0, select bank0
  7961     0764  1303               	bcf	3,6	;RP1=0, select bank0
  7962     0765  01A8               	clrf	power_on_screen@i
  7963     0766  01A9               	clrf	power_on_screen@i+1
  7964     0767                     l3644:
  7965                           
  7966                           ;washing_machine_function_def.c: 22:         clcd_putch(0XFF, (0x80 + i));
  7967     0767  0828               	movf	power_on_screen@i,w
  7968     0768  3E80               	addlw	128
  7969     0769  00F8               	movwf	clcd_putch@addr
  7970     076A  30FF               	movlw	255
  7971     076B  160A  118A  2458  120A  118A  	fcall	_clcd_putch
  7972     0770                     l3646:
  7973                           
  7974                           ;washing_machine_function_def.c: 23:         _delay((unsigned long)((100)*(20000000/4000
      +                          .0)));
  7975     0770  3003               	movlw	3
  7976     0771  1283               	bcf	3,5	;RP0=0, select bank0
  7977     0772  1303               	bcf	3,6	;RP1=0, select bank0
  7978     0773  00A7               	movwf	??_power_on_screen+2
  7979     0774  308A               	movlw	138
  7980     0775  00A6               	movwf	??_power_on_screen+1
  7981     0776  3055               	movlw	85
  7982     0777  00A5               	movwf	??_power_on_screen
  7983     0778                     u5797:
  7984     0778  0BA5               	decfsz	??_power_on_screen,f
  7985     0779  2F78               	goto	u5797
  7986     077A  0BA6               	decfsz	??_power_on_screen+1,f
  7987     077B  2F78               	goto	u5797
  7988     077C  0BA7               	decfsz	??_power_on_screen+2,f
  7989     077D  2F78               	goto	u5797
  7990     077E                     l3648:
  7991                           
  7992                           ;washing_machine_function_def.c: 24:     }
  7993     077E  3001               	movlw	1
  7994     077F  1283               	bcf	3,5	;RP0=0, select bank0
  7995     0780  1303               	bcf	3,6	;RP1=0, select bank0
  7996     0781  07A8               	addwf	power_on_screen@i,f
  7997     0782  1803               	skipnc
  7998     0783  0AA9               	incf	power_on_screen@i+1,f
  7999     0784  3000               	movlw	0
  8000     0785  07A9               	addwf	power_on_screen@i+1,f
  8001     0786                     l3650:
  8002     0786  3000               	movlw	0
  8003     0787  0229               	subwf	power_on_screen@i+1,w
  8004     0788  3010               	movlw	16
  8005     0789  1903               	skipnz
  8006     078A  0228               	subwf	power_on_screen@i,w
  8007     078B  1C03               	skipc
  8008     078C  2F8E               	goto	u5091
  8009     078D  2F8F               	goto	u5090
  8010     078E                     u5091:
  8011     078E  2F67               	goto	l3644
  8012     078F                     u5090:
  8013     078F                     l3652:
  8014                           
  8015                           ;washing_machine_function_def.c: 26:     clcd_print("Powering ON", (0xC0 + 1));
  8016     078F  3084               	movlw	low (STR_24| (0+32768))
  8017     0790  00A0               	movwf	clcd_print@str
  8018     0791  3090               	movlw	high (STR_24| (0+32768))
  8019     0792  00A1               	movwf	clcd_print@str+1
  8020     0793  30C1               	movlw	193
  8021     0794  00A2               	movwf	clcd_print@addr
  8022     0795  160A  118A  2500  120A  118A  	fcall	_clcd_print
  8023                           
  8024                           ;washing_machine_function_def.c: 27:     clcd_print("Washing Machine", (0x90 + 1));
  8025     079A  3021               	movlw	low (STR_3| (0+32768))
  8026     079B  1283               	bcf	3,5	;RP0=0, select bank0
  8027     079C  1303               	bcf	3,6	;RP1=0, select bank0
  8028     079D  00A0               	movwf	clcd_print@str
  8029     079E  3090               	movlw	high (STR_3| (0+32768))
  8030     079F  00A1               	movwf	clcd_print@str+1
  8031     07A0  3091               	movlw	145
  8032     07A1  00A2               	movwf	clcd_print@addr
  8033     07A2  160A  118A  2500  120A  118A  	fcall	_clcd_print
  8034     07A7                     l3654:
  8035                           
  8036                           ;washing_machine_function_def.c: 29:     for (unsigned int i = 0; i < 16; i++) {
  8037     07A7  1283               	bcf	3,5	;RP0=0, select bank0
  8038     07A8  1303               	bcf	3,6	;RP1=0, select bank0
  8039     07A9  01AA               	clrf	power_on_screen@i_194
  8040     07AA  01AB               	clrf	power_on_screen@i_194+1
  8041     07AB                     l3660:
  8042                           
  8043                           ;washing_machine_function_def.c: 30:         clcd_putch(0XFF, (0xD0 + i));
  8044     07AB  082A               	movf	power_on_screen@i_194,w
  8045     07AC  3ED0               	addlw	208
  8046     07AD  00F8               	movwf	clcd_putch@addr
  8047     07AE  30FF               	movlw	255
  8048     07AF  160A  118A  2458  120A  118A  	fcall	_clcd_putch
  8049     07B4                     l3662:
  8050                           
  8051                           ;washing_machine_function_def.c: 31:         _delay((unsigned long)((100)*(20000000/4000
      +                          .0)));
  8052     07B4  3003               	movlw	3
  8053     07B5  1283               	bcf	3,5	;RP0=0, select bank0
  8054     07B6  1303               	bcf	3,6	;RP1=0, select bank0
  8055     07B7  00A7               	movwf	??_power_on_screen+2
  8056     07B8  308A               	movlw	138
  8057     07B9  00A6               	movwf	??_power_on_screen+1
  8058     07BA  3055               	movlw	85
  8059     07BB  00A5               	movwf	??_power_on_screen
  8060     07BC                     u5807:
  8061     07BC  0BA5               	decfsz	??_power_on_screen,f
  8062     07BD  2FBC               	goto	u5807
  8063     07BE  0BA6               	decfsz	??_power_on_screen+1,f
  8064     07BF  2FBC               	goto	u5807
  8065     07C0  0BA7               	decfsz	??_power_on_screen+2,f
  8066     07C1  2FBC               	goto	u5807
  8067     07C2                     l3664:
  8068                           
  8069                           ;washing_machine_function_def.c: 32:     }
  8070     07C2  3001               	movlw	1
  8071     07C3  1283               	bcf	3,5	;RP0=0, select bank0
  8072     07C4  1303               	bcf	3,6	;RP1=0, select bank0
  8073     07C5  07AA               	addwf	power_on_screen@i_194,f
  8074     07C6  1803               	skipnc
  8075     07C7  0AAB               	incf	power_on_screen@i_194+1,f
  8076     07C8  3000               	movlw	0
  8077     07C9  07AB               	addwf	power_on_screen@i_194+1,f
  8078     07CA                     l3666:
  8079     07CA  3000               	movlw	0
  8080     07CB  022B               	subwf	power_on_screen@i_194+1,w
  8081     07CC  3010               	movlw	16
  8082     07CD  1903               	skipnz
  8083     07CE  022A               	subwf	power_on_screen@i_194,w
  8084     07CF  1C03               	skipc
  8085     07D0  2FD2               	goto	u5101
  8086     07D1  2FD3               	goto	u5100
  8087     07D2                     u5101:
  8088     07D2  2FAB               	goto	l3660
  8089     07D3                     u5100:
  8090     07D3                     l3668:
  8091                           
  8092                           ;washing_machine_function_def.c: 34:     _delay((unsigned long)((1000)*(20000000/4000.0)
      +                          ));
  8093     07D3  301A               	movlw	26
  8094     07D4  1283               	bcf	3,5	;RP0=0, select bank0
  8095     07D5  1303               	bcf	3,6	;RP1=0, select bank0
  8096     07D6  00A7               	movwf	??_power_on_screen+2
  8097     07D7  305E               	movlw	94
  8098     07D8  00A6               	movwf	??_power_on_screen+1
  8099     07D9  306D               	movlw	109
  8100     07DA  00A5               	movwf	??_power_on_screen
  8101     07DB                     u5817:
  8102     07DB  0BA5               	decfsz	??_power_on_screen,f
  8103     07DC  2FDB               	goto	u5817
  8104     07DD  0BA6               	decfsz	??_power_on_screen+1,f
  8105     07DE  2FDB               	goto	u5817
  8106     07DF  0BA7               	decfsz	??_power_on_screen+2,f
  8107     07E0  2FDB               	goto	u5817
  8108     07E1  2FE2               	nop2
  8109     07E2                     l212:
  8110     07E2  0008               	return
  8111     07E3                     __end_of_power_on_screen:
  8112                           
  8113                           	psect	text19
  8114     1458                     __ptext19:	
  8115 ;; *************** function _clcd_putch *****************
  8116 ;; Defined at:
  8117 ;;		line 49 in file "clcd.c"
  8118 ;; Parameters:    Size  Location     Type
  8119 ;;  data            1    wreg     const unsigned char 
  8120 ;;  addr            1    8[COMMON] unsigned char 
  8121 ;; Auto vars:     Size  Location     Type
  8122 ;;  data            1    4[BANK0 ] const unsigned char 
  8123 ;; Return value:  Size  Location     Type
  8124 ;;                  1    wreg      void 
  8125 ;; Registers used:
  8126 ;;		wreg, status,2, status,0, pclath, cstack
  8127 ;; Tracked objects:
  8128 ;;		On entry : 0/0
  8129 ;;		On exit  : 0/0
  8130 ;;		Unchanged: 0/0
  8131 ;; Data sizes:     COMMON   BANK0   BANK1   BANK3   BANK2
  8132 ;;      Params:         1       0       0       0       0
  8133 ;;      Locals:         0       1       0       0       0
  8134 ;;      Temps:          0       0       0       0       0
  8135 ;;      Totals:         1       1       0       0       0
  8136 ;;Total ram usage:        2 bytes
  8137 ;; Hardware stack levels used: 1
  8138 ;; Hardware stack levels required when called: 2
  8139 ;; This function calls:
  8140 ;;		_clcd_write
  8141 ;; This function is called by:
  8142 ;;		_power_on_screen
  8143 ;;		_washing_program_display
  8144 ;;		_water_level_screen
  8145 ;;		_run_program
  8146 ;; This function uses a non-reentrant model
  8147 ;;
  8148                           
  8149     1458                     _clcd_putch:	
  8150                           ;psect for function _clcd_putch
  8151                           
  8152                           
  8153                           ;incstack = 0
  8154                           ; Regs used in _clcd_putch: [wreg+status,2+status,0+pclath+cstack]
  8155                           ;clcd_putch@data stored from wreg
  8156     1458  1283               	bcf	3,5	;RP0=0, select bank0
  8157     1459  1303               	bcf	3,6	;RP1=0, select bank0
  8158     145A  00A4               	movwf	clcd_putch@data
  8159     145B                     l3212:
  8160                           
  8161                           ;clcd.c: 49: void clcd_putch(const char data, unsigned char addr);clcd.c: 50: {;clcd.c: 
      +                          51:     clcd_write(addr, 0);
  8162     145B  01F2               	clrf	clcd_write@mode
  8163     145C  0878               	movf	clcd_putch@addr,w
  8164     145D  160A  118A  246D  160A  118A  	fcall	_clcd_write
  8165                           
  8166                           ;clcd.c: 52:     clcd_write(data, 1);
  8167     1462  01F2               	clrf	clcd_write@mode
  8168     1463  0AF2               	incf	clcd_write@mode,f
  8169     1464  1283               	bcf	3,5	;RP0=0, select bank0
  8170     1465  1303               	bcf	3,6	;RP1=0, select bank0
  8171     1466  0824               	movf	clcd_putch@data,w
  8172     1467  160A  118A  246D  160A  118A  	fcall	_clcd_write
  8173     146C                     l100:
  8174     146C  0008               	return
  8175     146D                     __end_of_clcd_putch:
  8176                           
  8177                           	psect	text20
  8178     1500                     __ptext20:	
  8179 ;; *************** function _clcd_print *****************
  8180 ;; Defined at:
  8181 ;;		line 55 in file "clcd.c"
  8182 ;; Parameters:    Size  Location     Type
  8183 ;;  str             2    0[BANK0 ] PTR const unsigned char 
  8184 ;;		 -> STR_48(10), STR_47(11), STR_46(5), STR_45(10), 
  8185 ;;		 -> STR_44(15), STR_43(13), STR_42(15), STR_41(17), 
  8186 ;;		 -> STR_40(5), STR_39(5), STR_38(5), STR_37(6), 
  8187 ;;		 -> STR_36(5), STR_35(6), STR_34(5), STR_33(10), 
  8188 ;;		 -> STR_32(11), STR_31(5), STR_30(10), STR_29(6), 
  8189 ;;		 -> STR_28(6), STR_27(13), STR_26(16), STR_25(16), 
  8190 ;;		 -> STR_24(12), STR_23(4), STR_22(5), STR_21(7), 
  8191 ;;		 -> STR_20(4), STR_19(5), STR_18(9), STR_17(10), 
  8192 ;;		 -> STR_16(10), STR_15(11), STR_14(10), STR_13(8), 
  8193 ;;		 -> STR_12(11), STR_11(11), STR_10(7), STR_9(9), 
  8194 ;;		 -> STR_8(6), STR_7(6), STR_6(10), STR_5(12), 
  8195 ;;		 -> STR_4(13), STR_3(16), STR_2(9), STR_1(14), 
  8196 ;;  addr            1    2[BANK0 ] unsigned char 
  8197 ;; Auto vars:     Size  Location     Type
  8198 ;;		None
  8199 ;; Return value:  Size  Location     Type
  8200 ;;                  1    wreg      void 
  8201 ;; Registers used:
  8202 ;;		wreg, fsr0l, fsr0h, status,2, status,0, btemp+1, pclath, cstack
  8203 ;; Tracked objects:
  8204 ;;		On entry : 0/0
  8205 ;;		On exit  : 0/0
  8206 ;;		Unchanged: 0/0
  8207 ;; Data sizes:     COMMON   BANK0   BANK1   BANK3   BANK2
  8208 ;;      Params:         0       3       0       0       0
  8209 ;;      Locals:         0       0       0       0       0
  8210 ;;      Temps:          0       0       0       0       0
  8211 ;;      Totals:         0       3       0       0       0
  8212 ;;Total ram usage:        3 bytes
  8213 ;; Hardware stack levels used: 1
  8214 ;; Hardware stack levels required when called: 2
  8215 ;; This function calls:
  8216 ;;		_clcd_write
  8217 ;; This function is called by:
  8218 ;;		_main
  8219 ;;		_power_on_screen
  8220 ;;		_washing_program_display
  8221 ;;		_water_level_screen
  8222 ;;		_run_program
  8223 ;;		_door_status_check
  8224 ;; This function uses a non-reentrant model
  8225 ;;
  8226                           
  8227     1500                     _clcd_print:	
  8228                           ;psect for function _clcd_print
  8229                           
  8230     1500                     l2956:	
  8231                           ;incstack = 0
  8232                           ; Regs used in _clcd_print: [wreg-fsr0h+status,2+status,0+btemp+1+pclath+cstack]
  8233                           
  8234                           
  8235                           ;clcd.c: 55: void clcd_print(const char *str, unsigned char addr);clcd.c: 56: {;clcd.c: 
      +                          57:     clcd_write(addr, 0);
  8236     1500  01F2               	clrf	clcd_write@mode
  8237     1501  1283               	bcf	3,5	;RP0=0, select bank0
  8238     1502  1303               	bcf	3,6	;RP1=0, select bank0
  8239     1503  0822               	movf	clcd_print@addr,w
  8240     1504  160A  118A  246D  160A  118A  	fcall	_clcd_write
  8241                           
  8242                           ;clcd.c: 59:     while (*str != '\0')
  8243     1509  2D22               	goto	l2962
  8244     150A                     l2958:
  8245                           
  8246                           ;clcd.c: 60:     {;clcd.c: 61:         clcd_write(*str, 1);
  8247     150A  01F2               	clrf	clcd_write@mode
  8248     150B  0AF2               	incf	clcd_write@mode,f
  8249     150C  0821               	movf	clcd_print@str+1,w
  8250     150D  00FF               	movwf	btemp+1
  8251     150E  0820               	movf	clcd_print@str,w
  8252     150F  0084               	movwf	4
  8253     1510  160A  118A  216F  160A  118A  	fcall	stringtab
  8254     1515  160A  118A  246D  160A  118A  	fcall	_clcd_write
  8255     151A                     l2960:
  8256                           
  8257                           ;clcd.c: 62:         str++;
  8258     151A  3001               	movlw	1
  8259     151B  1283               	bcf	3,5	;RP0=0, select bank0
  8260     151C  1303               	bcf	3,6	;RP1=0, select bank0
  8261     151D  07A0               	addwf	clcd_print@str,f
  8262     151E  1803               	skipnc
  8263     151F  0AA1               	incf	clcd_print@str+1,f
  8264     1520  3000               	movlw	0
  8265     1521  07A1               	addwf	clcd_print@str+1,f
  8266     1522                     l2962:
  8267                           
  8268                           ;clcd.c: 59:     while (*str != '\0')
  8269     1522  1283               	bcf	3,5	;RP0=0, select bank0
  8270     1523  1303               	bcf	3,6	;RP1=0, select bank0
  8271     1524  0821               	movf	clcd_print@str+1,w
  8272     1525  00FF               	movwf	btemp+1
  8273     1526  0820               	movf	clcd_print@str,w
  8274     1527  0084               	movwf	4
  8275     1528  160A  118A  216F  160A  118A  	fcall	stringtab
  8276     152D  3A00               	xorlw	0
  8277     152E  1D03               	skipz
  8278     152F  2D31               	goto	u3581
  8279     1530  2D32               	goto	u3580
  8280     1531                     u3581:
  8281     1531  2D0A               	goto	l2958
  8282     1532                     u3580:
  8283     1532                     l106:
  8284     1532  0008               	return
  8285     1533                     __end_of_clcd_print:
  8286                           
  8287                           	psect	text21
  8288     07E3                     __ptext21:	
  8289 ;; *************** function _init_config *****************
  8290 ;; Defined at:
  8291 ;;		line 18 in file "main.c"
  8292 ;; Parameters:    Size  Location     Type
  8293 ;;		None
  8294 ;; Auto vars:     Size  Location     Type
  8295 ;;		None
  8296 ;; Return value:  Size  Location     Type
  8297 ;;                  1    wreg      void 
  8298 ;; Registers used:
  8299 ;;		wreg, status,2, status,0, pclath, cstack
  8300 ;; Tracked objects:
  8301 ;;		On entry : 0/0
  8302 ;;		On exit  : 0/0
  8303 ;;		Unchanged: 0/0
  8304 ;; Data sizes:     COMMON   BANK0   BANK1   BANK3   BANK2
  8305 ;;      Params:         0       0       0       0       0
  8306 ;;      Locals:         0       0       0       0       0
  8307 ;;      Temps:          0       0       0       0       0
  8308 ;;      Totals:         0       0       0       0       0
  8309 ;;Total ram usage:        0 bytes
  8310 ;; Hardware stack levels used: 1
  8311 ;; Hardware stack levels required when called: 4
  8312 ;; This function calls:
  8313 ;;		_init_clcd
  8314 ;;		_init_digital_keypad
  8315 ;;		_init_timer2
  8316 ;; This function is called by:
  8317 ;;		_main
  8318 ;; This function uses a non-reentrant model
  8319 ;;
  8320                           
  8321     07E3                     _init_config:	
  8322                           ;psect for function _init_config
  8323                           
  8324     07E3                     l3576:	
  8325                           ;incstack = 0
  8326                           ; Regs used in _init_config: [wreg+status,2+status,0+pclath+cstack]
  8327                           
  8328                           
  8329                           ;main.c: 20: }
  8330     07E3  160A  118A  240A  120A  118A  	fcall	_init_clcd
  8331                           
  8332                           ;main.c: 23:     init_config();
  8333     07E8  120A  158A  2003  120A  118A  	fcall	_init_digital_keypad
  8334     07ED                     l3578:
  8335                           
  8336                           ;main.c: 25:     clcd_print("Press Key5 to", (0x80 + 1));
  8337     07ED  160A  118A  2415  120A  118A  	fcall	_init_timer2
  8338     07F2                     l3580:
  8339                           
  8340                           ;main.c: 27:     clcd_print("Washing Machine", (0x90 + 1));
  8341     07F2  178B               	bsf	11,7	;volatile
  8342     07F3                     l3582:
  8343                           
  8344                           ;main.c: 28:     while (read_digital_keypad(1) != 0x2F)
  8345     07F3  170B               	bsf	11,6	;volatile
  8346     07F4                     l3584:
  8347                           
  8348                           ;main.c: 30:         for (unsigned long int delay = 3000; delay--;);
  8349     07F4  1683               	bsf	3,5	;RP0=1, select bank1
  8350     07F5  1303               	bcf	3,6	;RP1=0, select bank1
  8351     07F6  1087               	bcf	7,1	;volatile
  8352     07F7                     l3586:
  8353                           
  8354                           ;main.c: 31:     }
  8355     07F7  1107               	bcf	7,2	;volatile
  8356     07F8                     l3588:
  8357                           
  8358                           ;main.c: 32: 
  8359     07F8  1283               	bcf	3,5	;RP0=0, select bank0
  8360     07F9  1303               	bcf	3,6	;RP1=0, select bank0
  8361     07FA  1087               	bcf	7,1	;volatile
  8362     07FB                     l3590:
  8363                           
  8364                           ;main.c: 33:     clear_screen();
  8365     07FB  1107               	bcf	7,2	;volatile
  8366     07FC                     l43:
  8367     07FC  0008               	return
  8368     07FD                     __end_of_init_config:
  8369                           
  8370                           	psect	text22
  8371     1415                     __ptext22:	
  8372 ;; *************** function _init_timer2 *****************
  8373 ;; Defined at:
  8374 ;;		line 4 in file "timers.c"
  8375 ;; Parameters:    Size  Location     Type
  8376 ;;		None
  8377 ;; Auto vars:     Size  Location     Type
  8378 ;;		None
  8379 ;; Return value:  Size  Location     Type
  8380 ;;                  1    wreg      void 
  8381 ;; Registers used:
  8382 ;;		None
  8383 ;; Tracked objects:
  8384 ;;		On entry : 0/0
  8385 ;;		On exit  : 0/0
  8386 ;;		Unchanged: 0/0
  8387 ;; Data sizes:     COMMON   BANK0   BANK1   BANK3   BANK2
  8388 ;;      Params:         0       0       0       0       0
  8389 ;;      Locals:         0       0       0       0       0
  8390 ;;      Temps:          0       0       0       0       0
  8391 ;;      Totals:         0       0       0       0       0
  8392 ;;Total ram usage:        0 bytes
  8393 ;; Hardware stack levels used: 1
  8394 ;; Hardware stack levels required when called: 1
  8395 ;; This function calls:
  8396 ;;		Nothing
  8397 ;; This function is called by:
  8398 ;;		_init_config
  8399 ;; This function uses a non-reentrant model
  8400 ;;
  8401                           
  8402     1415                     _init_timer2:	
  8403                           ;psect for function _init_timer2
  8404                           
  8405     1415                     l3210:	
  8406                           ;incstack = 0
  8407                           ; Regs used in _init_timer2: []
  8408                           
  8409                           
  8410                           ;timers.c: 10:     TMR2ON = 0;
  8411     1415  1283               	bcf	3,5	;RP0=0, select bank0
  8412     1416  1303               	bcf	3,6	;RP1=0, select bank0
  8413     1417  1112               	bcf	18,2	;volatile
  8414                           
  8415                           ;timers.c: 15:     PR2 = 250;
  8416     1418  30FA               	movlw	250
  8417     1419  1683               	bsf	3,5	;RP0=1, select bank1
  8418     141A  1303               	bcf	3,6	;RP1=0, select bank1
  8419     141B  0092               	movwf	18	;volatile
  8420                           
  8421                           ;timers.c: 18:     TMR2IE = 1;
  8422     141C  148C               	bsf	12,1	;volatile
  8423                           
  8424                           ;timers.c: 22:     TMR2IF = 0;
  8425     141D  1283               	bcf	3,5	;RP0=0, select bank0
  8426     141E  1303               	bcf	3,6	;RP1=0, select bank0
  8427     141F  108C               	bcf	12,1	;volatile
  8428     1420                     l141:
  8429     1420  0008               	return
  8430     1421                     __end_of_init_timer2:
  8431                           
  8432                           	psect	text23
  8433     0803                     __ptext23:	
  8434 ;; *************** function _init_digital_keypad *****************
  8435 ;; Defined at:
  8436 ;;		line 4 in file "digital_keypad.c"
  8437 ;; Parameters:    Size  Location     Type
  8438 ;;		None
  8439 ;; Auto vars:     Size  Location     Type
  8440 ;;		None
  8441 ;; Return value:  Size  Location     Type
  8442 ;;                  1    wreg      void 
  8443 ;; Registers used:
  8444 ;;		wreg, status,2
  8445 ;; Tracked objects:
  8446 ;;		On entry : 0/0
  8447 ;;		On exit  : 0/0
  8448 ;;		Unchanged: 0/0
  8449 ;; Data sizes:     COMMON   BANK0   BANK1   BANK3   BANK2
  8450 ;;      Params:         0       0       0       0       0
  8451 ;;      Locals:         0       0       0       0       0
  8452 ;;      Temps:          0       0       0       0       0
  8453 ;;      Totals:         0       0       0       0       0
  8454 ;;Total ram usage:        0 bytes
  8455 ;; Hardware stack levels used: 1
  8456 ;; Hardware stack levels required when called: 1
  8457 ;; This function calls:
  8458 ;;		Nothing
  8459 ;; This function is called by:
  8460 ;;		_init_config
  8461 ;; This function uses a non-reentrant model
  8462 ;;
  8463                           
  8464     0803                     _init_digital_keypad:	
  8465                           ;psect for function _init_digital_keypad
  8466                           
  8467     0803                     l3208:	
  8468                           ;incstack = 0
  8469                           ; Regs used in _init_digital_keypad: [wreg+status,2]
  8470                           
  8471                           
  8472                           ;digital_keypad.c: 6:     TRISB = TRISB | 0x3F;
  8473     0803  1683               	bsf	3,5	;RP0=1, select bank1
  8474     0804  1303               	bcf	3,6	;RP1=0, select bank1
  8475     0805  0806               	movf	6,w	;volatile
  8476     0806  383F               	iorlw	63
  8477     0807  0086               	movwf	6	;volatile
  8478     0808                     l113:
  8479     0808  0008               	return
  8480     0809                     __end_of_init_digital_keypad:
  8481                           
  8482                           	psect	text24
  8483     140A                     __ptext24:	
  8484 ;; *************** function _init_clcd *****************
  8485 ;; Defined at:
  8486 ;;		line 37 in file "clcd.c"
  8487 ;; Parameters:    Size  Location     Type
  8488 ;;		None
  8489 ;; Auto vars:     Size  Location     Type
  8490 ;;		None
  8491 ;; Return value:  Size  Location     Type
  8492 ;;                  1    wreg      void 
  8493 ;; Registers used:
  8494 ;;		wreg, status,2, status,0, pclath, cstack
  8495 ;; Tracked objects:
  8496 ;;		On entry : 0/0
  8497 ;;		On exit  : 0/0
  8498 ;;		Unchanged: 0/0
  8499 ;; Data sizes:     COMMON   BANK0   BANK1   BANK3   BANK2
  8500 ;;      Params:         0       0       0       0       0
  8501 ;;      Locals:         0       0       0       0       0
  8502 ;;      Temps:          0       0       0       0       0
  8503 ;;      Totals:         0       0       0       0       0
  8504 ;;Total ram usage:        0 bytes
  8505 ;; Hardware stack levels used: 1
  8506 ;; Hardware stack levels required when called: 3
  8507 ;; This function calls:
  8508 ;;		_init_display_controller
  8509 ;; This function is called by:
  8510 ;;		_init_config
  8511 ;; This function uses a non-reentrant model
  8512 ;;
  8513                           
  8514     140A                     _init_clcd:	
  8515                           ;psect for function _init_clcd
  8516                           
  8517     140A                     l3200:	
  8518                           ;incstack = 0
  8519                           ; Regs used in _init_clcd: [wreg+status,2+status,0+pclath+cstack]
  8520                           
  8521                           
  8522                           ;clcd.c: 40:     TRISD = 0x00;
  8523     140A  1683               	bsf	3,5	;RP0=1, select bank1
  8524     140B  1303               	bcf	3,6	;RP1=0, select bank1
  8525     140C  0188               	clrf	8	;volatile
  8526     140D                     l3202:
  8527                           
  8528                           ;clcd.c: 43:     TRISE2 = 0;
  8529     140D  1109               	bcf	9,2	;volatile
  8530     140E                     l3204:
  8531                           
  8532                           ;clcd.c: 44:     TRISE1 = 0;
  8533     140E  1089               	bcf	9,1	;volatile
  8534     140F                     l3206:
  8535                           
  8536                           ;clcd.c: 46:     init_display_controller();
  8537     140F  160A  118A  25D4  160A  118A  	fcall	_init_display_controller
  8538     1414                     l97:
  8539     1414  0008               	return
  8540     1415                     __end_of_init_clcd:
  8541                           
  8542                           	psect	text25
  8543     15D4                     __ptext25:	
  8544 ;; *************** function _init_display_controller *****************
  8545 ;; Defined at:
  8546 ;;		line 16 in file "clcd.c"
  8547 ;; Parameters:    Size  Location     Type
  8548 ;;		None
  8549 ;; Auto vars:     Size  Location     Type
  8550 ;;		None
  8551 ;; Return value:  Size  Location     Type
  8552 ;;                  1    wreg      void 
  8553 ;; Registers used:
  8554 ;;		wreg, status,2, status,0, pclath, cstack
  8555 ;; Tracked objects:
  8556 ;;		On entry : 0/0
  8557 ;;		On exit  : 0/0
  8558 ;;		Unchanged: 0/0
  8559 ;; Data sizes:     COMMON   BANK0   BANK1   BANK3   BANK2
  8560 ;;      Params:         0       0       0       0       0
  8561 ;;      Locals:         0       0       0       0       0
  8562 ;;      Temps:          2       0       0       0       0
  8563 ;;      Totals:         2       0       0       0       0
  8564 ;;Total ram usage:        2 bytes
  8565 ;; Hardware stack levels used: 1
  8566 ;; Hardware stack levels required when called: 2
  8567 ;; This function calls:
  8568 ;;		_clcd_write
  8569 ;; This function is called by:
  8570 ;;		_init_clcd
  8571 ;; This function uses a non-reentrant model
  8572 ;;
  8573                           
  8574     15D4                     _init_display_controller:	
  8575                           ;psect for function _init_display_controller
  8576                           
  8577     15D4                     l2968:	
  8578                           ;incstack = 0
  8579                           ; Regs used in _init_display_controller: [wreg+status,2+status,0+pclath+cstack]
  8580                           
  8581                           
  8582                           ;clcd.c: 19:     _delay((unsigned long)((30)*(20000000/4000.0)));
  8583     15D4  30C3               	movlw	195
  8584     15D5  00F7               	movwf	??_init_display_controller+1
  8585     15D6  30CD               	movlw	205
  8586     15D7  00F6               	movwf	??_init_display_controller
  8587     15D8                     u5827:
  8588     15D8  0BF6               	decfsz	??_init_display_controller,f
  8589     15D9  2DD8               	goto	u5827
  8590     15DA  0BF7               	decfsz	??_init_display_controller+1,f
  8591     15DB  2DD8               	goto	u5827
  8592     15DC                     l2970:
  8593                           
  8594                           ;clcd.c: 22:     clcd_write(0x33, 0);
  8595     15DC  01F2               	clrf	clcd_write@mode
  8596     15DD  3033               	movlw	51
  8597     15DE  160A  118A  246D  160A  118A  	fcall	_clcd_write
  8598     15E3                     l2972:
  8599                           
  8600                           ;clcd.c: 23:     _delay((unsigned long)((4100)*(20000000/4000000.0)));
  8601     15E3  301B               	movlw	27
  8602     15E4  00F7               	movwf	??_init_display_controller+1
  8603     15E5  309E               	movlw	158
  8604     15E6  00F6               	movwf	??_init_display_controller
  8605     15E7                     u5837:
  8606     15E7  0BF6               	decfsz	??_init_display_controller,f
  8607     15E8  2DE7               	goto	u5837
  8608     15E9  0BF7               	decfsz	??_init_display_controller+1,f
  8609     15EA  2DE7               	goto	u5837
  8610     15EB  0000               	nop
  8611                           
  8612                           ;clcd.c: 24:     clcd_write(0x33, 0);
  8613     15EC  01F2               	clrf	clcd_write@mode
  8614     15ED  3033               	movlw	51
  8615     15EE  160A  118A  246D  160A  118A  	fcall	_clcd_write
  8616     15F3                     l2974:
  8617                           
  8618                           ;clcd.c: 25:     _delay((unsigned long)((100)*(20000000/4000000.0)));
  8619     15F3  30A6               	movlw	166
  8620     15F4  00F6               	movwf	??_init_display_controller
  8621     15F5                     u5847:
  8622     15F5  0BF6               	decfsz	??_init_display_controller,f
  8623     15F6  2DF5               	goto	u5847
  8624     15F7  0000               	nop
  8625     15F8                     l2976:
  8626                           
  8627                           ;clcd.c: 26:     clcd_write(0x33, 0);
  8628     15F8  01F2               	clrf	clcd_write@mode
  8629     15F9  3033               	movlw	51
  8630     15FA  160A  118A  246D  160A  118A  	fcall	_clcd_write
  8631     15FF                     l2978:
  8632                           
  8633                           ;clcd.c: 27:     _delay((unsigned long)((1)*(20000000/4000000.0)));
  8634     15FF  2E00               	nop2	;2 cycle nop
  8635     1600  2E01               	nop2	;2 cycle nop
  8636     1601  0000               	nop
  8637     1602                     l2980:
  8638                           
  8639                           ;clcd.c: 29:     clcd_write(0x3C, 0);
  8640     1602  01F2               	clrf	clcd_write@mode
  8641     1603  303C               	movlw	60
  8642     1604  160A  118A  246D  160A  118A  	fcall	_clcd_write
  8643     1609                     l2982:
  8644                           
  8645                           ;clcd.c: 30:     _delay((unsigned long)((100)*(20000000/4000000.0)));
  8646     1609  30A6               	movlw	166
  8647     160A  00F6               	movwf	??_init_display_controller
  8648     160B                     u5857:
  8649     160B  0BF6               	decfsz	??_init_display_controller,f
  8650     160C  2E0B               	goto	u5857
  8651     160D  0000               	nop
  8652                           
  8653                           ;clcd.c: 31:     clcd_write(0x01, 0);
  8654     160E  01F2               	clrf	clcd_write@mode
  8655     160F  3001               	movlw	1
  8656     1610  160A  118A  246D  160A  118A  	fcall	_clcd_write
  8657     1615                     l2984:
  8658                           
  8659                           ;clcd.c: 32:     _delay((unsigned long)((500)*(20000000/4000000.0)));
  8660     1615  3004               	movlw	4
  8661     1616  00F7               	movwf	??_init_display_controller+1
  8662     1617  303D               	movlw	61
  8663     1618  00F6               	movwf	??_init_display_controller
  8664     1619                     u5867:
  8665     1619  0BF6               	decfsz	??_init_display_controller,f
  8666     161A  2E19               	goto	u5867
  8667     161B  0BF7               	decfsz	??_init_display_controller+1,f
  8668     161C  2E19               	goto	u5867
  8669     161D  2E1E               	nop2
  8670     161E                     l2986:
  8671                           
  8672                           ;clcd.c: 33:     clcd_write(0x0C, 0);
  8673     161E  01F2               	clrf	clcd_write@mode
  8674     161F  300C               	movlw	12
  8675     1620  160A  118A  246D  160A  118A  	fcall	_clcd_write
  8676                           
  8677                           ;clcd.c: 34:     _delay((unsigned long)((100)*(20000000/4000000.0)));
  8678     1625  30A6               	movlw	166
  8679     1626  00F6               	movwf	??_init_display_controller
  8680     1627                     u5877:
  8681     1627  0BF6               	decfsz	??_init_display_controller,f
  8682     1628  2E27               	goto	u5877
  8683     1629  0000               	nop
  8684     162A                     l94:
  8685     162A  0008               	return
  8686     162B                     __end_of_init_display_controller:
  8687                           
  8688                           	psect	text26
  8689     146D                     __ptext26:	
  8690 ;; *************** function _clcd_write *****************
  8691 ;; Defined at:
  8692 ;;		line 4 in file "clcd.c"
  8693 ;; Parameters:    Size  Location     Type
  8694 ;;  byte            1    wreg     unsigned char 
  8695 ;;  mode            1    2[COMMON] unsigned char 
  8696 ;; Auto vars:     Size  Location     Type
  8697 ;;  byte            1    5[COMMON] unsigned char 
  8698 ;; Return value:  Size  Location     Type
  8699 ;;                  1    wreg      void 
  8700 ;; Registers used:
  8701 ;;		wreg
  8702 ;; Tracked objects:
  8703 ;;		On entry : 0/0
  8704 ;;		On exit  : 0/0
  8705 ;;		Unchanged: 0/0
  8706 ;; Data sizes:     COMMON   BANK0   BANK1   BANK3   BANK2
  8707 ;;      Params:         1       0       0       0       0
  8708 ;;      Locals:         1       0       0       0       0
  8709 ;;      Temps:          2       0       0       0       0
  8710 ;;      Totals:         4       0       0       0       0
  8711 ;;Total ram usage:        4 bytes
  8712 ;; Hardware stack levels used: 1
  8713 ;; Hardware stack levels required when called: 1
  8714 ;; This function calls:
  8715 ;;		Nothing
  8716 ;; This function is called by:
  8717 ;;		_init_display_controller
  8718 ;;		_clcd_putch
  8719 ;;		_clcd_print
  8720 ;;		_clear_screen
  8721 ;; This function uses a non-reentrant model
  8722 ;;
  8723                           
  8724     146D                     _clcd_write:	
  8725                           ;psect for function _clcd_write
  8726                           
  8727                           
  8728                           ;incstack = 0
  8729                           ; Regs used in _clcd_write: [wreg]
  8730                           ;clcd_write@byte stored from wreg
  8731     146D  00F5               	movwf	clcd_write@byte
  8732     146E                     l2948:
  8733                           
  8734                           ;clcd.c: 4: void clcd_write(unsigned char byte, unsigned char mode);clcd.c: 5: {;clcd.c:
      +                           6:     RE2 = mode;
  8735     146E  1872               	btfsc	clcd_write@mode,0
  8736     146F  2C71               	goto	u3561
  8737     1470  2C75               	goto	u3560
  8738     1471                     u3561:
  8739     1471  1283               	bcf	3,5	;RP0=0, select bank0
  8740     1472  1303               	bcf	3,6	;RP1=0, select bank0
  8741     1473  1509               	bsf	9,2	;volatile
  8742     1474  2C78               	goto	u3574
  8743     1475                     u3560:
  8744     1475  1283               	bcf	3,5	;RP0=0, select bank0
  8745     1476  1303               	bcf	3,6	;RP1=0, select bank0
  8746     1477  1109               	bcf	9,2	;volatile
  8747     1478                     u3574:
  8748     1478                     l2950:
  8749                           
  8750                           ;clcd.c: 7:     PORTD = byte;
  8751     1478  0875               	movf	clcd_write@byte,w
  8752     1479  0088               	movwf	8	;volatile
  8753     147A                     l2952:
  8754                           
  8755                           ;clcd.c: 9:     RE1 = 1;
  8756     147A  1489               	bsf	9,1	;volatile
  8757                           
  8758                           ;clcd.c: 10:     _delay((unsigned long)((100)*(20000000/4000000.0)));
  8759     147B  30A6               	movlw	166
  8760     147C  00F3               	movwf	??_clcd_write
  8761     147D                     u5887:
  8762     147D  0BF3               	decfsz	??_clcd_write,f
  8763     147E  2C7D               	goto	u5887
  8764     147F  0000               	nop
  8765     1480                     l2954:
  8766                           
  8767                           ;clcd.c: 11:     RE1 = 0;
  8768     1480  1283               	bcf	3,5	;RP0=0, select bank0
  8769     1481  1303               	bcf	3,6	;RP1=0, select bank0
  8770     1482  1089               	bcf	9,1	;volatile
  8771                           
  8772                           ;clcd.c: 13:     _delay((unsigned long)((4100)*(20000000/4000000.0)));
  8773     1483  301B               	movlw	27
  8774     1484  00F4               	movwf	??_clcd_write+1
  8775     1485  309E               	movlw	158
  8776     1486  00F3               	movwf	??_clcd_write
  8777     1487                     u5897:
  8778     1487  0BF3               	decfsz	??_clcd_write,f
  8779     1488  2C87               	goto	u5897
  8780     1489  0BF4               	decfsz	??_clcd_write+1,f
  8781     148A  2C87               	goto	u5897
  8782     148B  0000               	nop
  8783     148C                     l91:
  8784     148C  0008               	return
  8785     148D                     __end_of_clcd_write:
  8786                           
  8787                           	psect	text27
  8788     1533                     __ptext27:	
  8789 ;; *************** function _isr *****************
  8790 ;; Defined at:
  8791 ;;		line 4 in file "isr.c"
  8792 ;; Parameters:    Size  Location     Type
  8793 ;;		None
  8794 ;; Auto vars:     Size  Location     Type
  8795 ;;		None
  8796 ;; Return value:  Size  Location     Type
  8797 ;;                  1    wreg      void 
  8798 ;; Registers used:
  8799 ;;		wreg, status,2, status,0
  8800 ;; Tracked objects:
  8801 ;;		On entry : 0/0
  8802 ;;		On exit  : 0/0
  8803 ;;		Unchanged: 0/0
  8804 ;; Data sizes:     COMMON   BANK0   BANK1   BANK3   BANK2
  8805 ;;      Params:         0       0       0       0       0
  8806 ;;      Locals:         0       0       0       0       0
  8807 ;;      Temps:          2       0       0       0       0
  8808 ;;      Totals:         2       0       0       0       0
  8809 ;;Total ram usage:        2 bytes
  8810 ;; Hardware stack levels used: 1
  8811 ;; This function calls:
  8812 ;;		Nothing
  8813 ;; This function is called by:
  8814 ;;		Interrupt level 1
  8815 ;; This function uses a non-reentrant model
  8816 ;;
  8817                           
  8818     1533                     _isr:	
  8819                           ;psect for function _isr
  8820                           
  8821     1533                     i1l2928:
  8822                           
  8823                           ;isr.c: 6:     static unsigned long int count = 0;;isr.c: 8:     if(TMR2IF ==1)
  8824     1533  1283               	bcf	3,5	;RP0=0, select bank0
  8825     1534  1303               	bcf	3,6	;RP1=0, select bank0
  8826     1535  1C8C               	btfss	12,1	;volatile
  8827     1536  2D38               	goto	u351_21
  8828     1537  2D39               	goto	u351_20
  8829     1538                     u351_21:
  8830     1538  2D77               	goto	i1l159
  8831     1539                     u351_20:
  8832     1539                     i1l2930:
  8833                           
  8834                           ;isr.c: 9:     {;isr.c: 10:         if( ++count == 20000)
  8835     1539  3001               	movlw	1
  8836     153A  1683               	bsf	3,5	;RP0=1, select bank1
  8837     153B  1303               	bcf	3,6	;RP1=0, select bank1
  8838     153C  07C6               	addwf	isr@count^(0+128),f
  8839     153D  3000               	movlw	0
  8840     153E  1803               	skipnc
  8841     153F  3001               	movlw	1
  8842     1540  07C7               	addwf	(isr@count+1)^(0+128),f
  8843     1541  3000               	movlw	0
  8844     1542  1803               	skipnc
  8845     1543  3001               	movlw	1
  8846     1544  07C8               	addwf	(isr@count+2)^(0+128),f
  8847     1545  3000               	movlw	0
  8848     1546  1803               	skipnc
  8849     1547  3001               	movlw	1
  8850     1548  07C9               	addwf	(isr@count+3)^(0+128),f
  8851     1549  3020               	movlw	32
  8852     154A  0646               	xorwf	isr@count^(0+128),w
  8853     154B  304E               	movlw	78
  8854     154C  1903               	skipnz
  8855     154D  0647               	xorwf	(isr@count+1)^(0+128),w
  8856     154E  0448               	iorwf	(isr@count+2)^(0+128),w
  8857     154F  0449               	iorwf	(isr@count+3)^(0+128),w
  8858     1550  1D03               	btfss	3,2
  8859     1551  2D53               	goto	u352_21
  8860     1552  2D54               	goto	u352_20
  8861     1553                     u352_21:
  8862     1553  2D74               	goto	i1l2946
  8863     1554                     u352_20:
  8864     1554                     i1l2932:
  8865                           
  8866                           ;isr.c: 11:         {;isr.c: 12:             if(sec != 0)
  8867     1554  087B               	movf	_sec,w
  8868     1555  1903               	btfsc	3,2
  8869     1556  2D58               	goto	u353_21
  8870     1557  2D59               	goto	u353_20
  8871     1558                     u353_21:
  8872     1558  2D5C               	goto	i1l2936
  8873     1559                     u353_20:
  8874     1559                     i1l2934:
  8875                           
  8876                           ;isr.c: 13:             sec--;
  8877     1559  3001               	movlw	1
  8878     155A  02FB               	subwf	_sec,f
  8879     155B  2D6A               	goto	i1l2944
  8880     155C                     i1l2936:
  8881     155C  087B               	movf	_sec,w
  8882     155D  1D03               	btfss	3,2
  8883     155E  2D60               	goto	u354_21
  8884     155F  2D61               	goto	u354_20
  8885     1560                     u354_21:
  8886     1560  2D6A               	goto	i1l2944
  8887     1561                     u354_20:
  8888     1561                     i1l2938:
  8889     1561  087A               	movf	_min,w
  8890     1562  1903               	btfsc	3,2
  8891     1563  2D65               	goto	u355_21
  8892     1564  2D66               	goto	u355_20
  8893     1565                     u355_21:
  8894     1565  2D6A               	goto	i1l2944
  8895     1566                     u355_20:
  8896     1566                     i1l2940:
  8897                           
  8898                           ;isr.c: 15:             {;isr.c: 16:                 min--;
  8899     1566  3001               	movlw	1
  8900     1567  02FA               	subwf	_min,f
  8901     1568                     i1l2942:
  8902                           
  8903                           ;isr.c: 17:                 sec=60;
  8904     1568  303C               	movlw	60
  8905     1569  00FB               	movwf	_sec
  8906     156A                     i1l2944:
  8907                           
  8908                           ;isr.c: 19:             count = 0;
  8909     156A  3000               	movlw	0
  8910     156B  1683               	bsf	3,5	;RP0=1, select bank1
  8911     156C  1303               	bcf	3,6	;RP1=0, select bank1
  8912     156D  00C9               	movwf	(isr@count+3)^(0+128)
  8913     156E  3000               	movlw	0
  8914     156F  00C8               	movwf	(isr@count+2)^(0+128)
  8915     1570  3000               	movlw	0
  8916     1571  00C7               	movwf	(isr@count+1)^(0+128)
  8917     1572  3000               	movlw	0
  8918     1573  00C6               	movwf	isr@count^(0+128)
  8919     1574                     i1l2946:
  8920                           
  8921                           ;isr.c: 23:         TMR2IF = 0;
  8922     1574  1283               	bcf	3,5	;RP0=0, select bank0
  8923     1575  1303               	bcf	3,6	;RP1=0, select bank0
  8924     1576  108C               	bcf	12,1	;volatile
  8925     1577                     i1l159:
  8926     1577  0871               	movf	??_isr+1,w
  8927     1578  008A               	movwf	10
  8928     1579  0E70               	swapf	??_isr,w
  8929     157A  0083               	movwf	3
  8930     157B  0EFE               	swapf	btemp,f
  8931     157C  0E7E               	swapf	btemp,w
  8932     157D  0009               	retfie
  8933     157E                     __end_of_isr:
  8934     0002                     ___latbits      equ	2
  8935     007E                     btemp           set	126	;btemp
  8936     007E                     wtemp0          set	126
  8937                           
  8938                           	psect	intentry
  8939     0004                     __pintentry:	
  8940                           ;incstack = 0
  8941                           ; Regs used in _isr: [wreg+status,2+status,0]
  8942                           
  8943     0004                     interrupt_function:
  8944     007E                     saved_w         set	btemp
  8945     0004  00FE               	movwf	btemp
  8946     0005  0E03               	swapf	3,w
  8947     0006  00F0               	movwf	??_isr
  8948     0007  080A               	movf	10,w
  8949     0008  00F1               	movwf	??_isr+1
  8950     0009  160A  118A  2D33   	ljmp	_isr
  8951                           
  8952                           	psect	config
  8953                           
  8954                           ;Config register CONFIG @ 0x2007
  8955                           ;	Oscillator Selection bits
  8956                           ;	FOSC = 0x3, unprogrammed default
  8957                           ;	Watchdog Timer Enable bit
  8958                           ;	WDTE = OFF, WDT disabled
  8959                           ;	Power-up Timer Enable bit
  8960                           ;	PWRTE = 0x1, unprogrammed default
  8961                           ;	Brown-out Reset Enable bit
  8962                           ;	BOREN = 0x1, unprogrammed default
  8963                           ;	Low-Voltage (Single-Supply) In-Circuit Serial Programming Enable bit
  8964                           ;	LVP = 0x1, unprogrammed default
  8965                           ;	Data EEPROM Memory Code Protection bit
  8966                           ;	CPD = 0x1, unprogrammed default
  8967                           ;	Flash Program Memory Write Enable bits
  8968                           ;	WRT = 0x3, unprogrammed default
  8969                           ;	In-Circuit Debugger Mode bit
  8970                           ;	DEBUG = 0x1, unprogrammed default
  8971                           ;	Flash Program Memory Code Protection bit
  8972                           ;	CP = 0x1, unprogrammed default
  8973     2007                     	org	8199
  8974     2007  3FFB               	dw	16379

Data Sizes:
    Strings     367
    Constant    0
    Data        38
    BSS         14
    Persistent  0
    Stack       0

Auto Spaces:
    Space          Size  Autos    Used
    COMMON           14      9      12
    BANK0            80     73      75
    BANK1            80      9      56
    BANK3            96      0       0
    BANK2            96      0       0

Pointer List with Targets:

    clcd_print@str	PTR const unsigned char  size(2) Largest target is 17
		 -> STR_1(CODE[14]), STR_10(CODE[7]), STR_11(CODE[11]), STR_12(CODE[11]), 
		 -> STR_13(CODE[8]), STR_14(CODE[10]), STR_15(CODE[11]), STR_16(CODE[10]), 
		 -> STR_17(CODE[10]), STR_18(CODE[9]), STR_19(CODE[5]), STR_2(CODE[9]), 
		 -> STR_20(CODE[4]), STR_21(CODE[7]), STR_22(CODE[5]), STR_23(CODE[4]), 
		 -> STR_24(CODE[12]), STR_25(CODE[16]), STR_26(CODE[16]), STR_27(CODE[13]), 
		 -> STR_28(CODE[6]), STR_29(CODE[6]), STR_3(CODE[16]), STR_30(CODE[10]), 
		 -> STR_31(CODE[5]), STR_32(CODE[11]), STR_33(CODE[10]), STR_34(CODE[5]), 
		 -> STR_35(CODE[6]), STR_36(CODE[5]), STR_37(CODE[6]), STR_38(CODE[5]), 
		 -> STR_39(CODE[5]), STR_4(CODE[13]), STR_40(CODE[5]), STR_41(CODE[17]), 
		 -> STR_42(CODE[15]), STR_43(CODE[13]), STR_44(CODE[15]), STR_45(CODE[10]), 
		 -> STR_46(CODE[5]), STR_47(CODE[11]), STR_48(CODE[10]), STR_5(CODE[12]), 
		 -> STR_6(CODE[10]), STR_7(CODE[6]), STR_8(CODE[6]), STR_9(CODE[9]), 

    washing_program	PTR unsigned char [12] size(2) Largest target is 11
		 -> STR_10(CODE[7]), STR_11(CODE[11]), STR_12(CODE[11]), STR_13(CODE[8]), 
		 -> STR_14(CODE[10]), STR_15(CODE[11]), STR_16(CODE[10]), STR_17(CODE[10]), 
		 -> STR_18(CODE[9]), STR_7(CODE[6]), STR_8(CODE[6]), STR_9(CODE[9]), 

    water_level	PTR unsigned char [5] size(2) Largest target is 7
		 -> STR_19(CODE[5]), STR_20(CODE[4]), STR_21(CODE[7]), STR_22(CODE[5]), 
		 -> STR_23(CODE[4]), 


Critical Paths under _main in COMMON

    _water_level_screen->_clcd_putch
    _washing_program_display->_clcd_putch
    _run_program->_clcd_putch
    _door_status_check->_clear_screen
    _clear_screen->_clcd_write
    ___fltol->___xxtofl
    ___flsub->___fladd
    ___flsub->___xxtofl
    ___flmul->__Umul8_16
    ___flmul->___xxtofl
    ___flge->___xxtofl
    _power_on_screen->_clcd_putch
    _clcd_putch->___awmod
    _clcd_print->___awmod
    _init_clcd->_init_display_controller
    _init_display_controller->_clcd_write

Critical Paths under _isr in COMMON

    None.

Critical Paths under _main in BANK0

    _main->_run_program
    _water_level_screen->_clcd_putch
    _washing_program_display->_clcd_putch
    _run_program->___flge
    _door_status_check->_clcd_print
    ___fltol->___flmul
    ___flsub->___flmul
    ___flmul->___xxtofl
    ___flge->___flsub
    _power_on_screen->_clcd_putch
    _clcd_putch->___awdiv

Critical Paths under _isr in BANK0

    None.

Critical Paths under _main in BANK1

    None.

Critical Paths under _isr in BANK1

    None.

Critical Paths under _main in BANK3

    None.

Critical Paths under _isr in BANK3

    None.

Critical Paths under _main in BANK2

    None.

Critical Paths under _isr in BANK2

    None.

Call Graph Tables:

 ---------------------------------------------------------------------------------
 (Depth) Function   	        Calls       Base Space   Used Autos Params    Refs
 ---------------------------------------------------------------------------------
 (0) _main                                                13    13      0   12968
                                             69 BANK0      4     4      0
                                              0 BANK1      9     9      0
                         _clcd_print
                       _clear_screen
                        _init_config
                    _power_on_screen
                _read_digital_keypad
                        _run_program
                           _set_time
            _washing_program_display
                 _water_level_screen
 ---------------------------------------------------------------------------------
 (1) _water_level_screen                                   3     3      0    1313
                                              5 BANK0      3     3      0
                            ___awmod
                         _clcd_print
                         _clcd_putch
                       _clear_screen
 ---------------------------------------------------------------------------------
 (1) _washing_program_display                              3     3      0     860
                                              5 BANK0      3     3      0
                         _clcd_print
                         _clcd_putch
                       _clear_screen
 ---------------------------------------------------------------------------------
 (1) _set_time                                             0     0      0       0
 ---------------------------------------------------------------------------------
 (1) _run_program                                         13    13      0    8634
                                             56 BANK0     13    13      0
                            ___awdiv
                            ___awmod
                             ___bmul
                             ___flge
                            ___flmul
                            ___flsub
                            ___fltol
                           ___xxtofl
                         _clcd_print
                         _clcd_putch
                       _clear_screen
                  _door_status_check
 ---------------------------------------------------------------------------------
 (2) _door_status_check                                    0     0      0     582
                         _clcd_print
                       _clear_screen
 ---------------------------------------------------------------------------------
 (2) _clear_screen                                         2     2      0     111
                                              6 COMMON     2     2      0
                         _clcd_write
 ---------------------------------------------------------------------------------
 (2) ___xxtofl                                            14    10      4     526
                                              2 COMMON     4     0      4
                                              0 BANK0     10    10      0
 ---------------------------------------------------------------------------------
 (2) ___fltol                                             10     6      4     346
                                              6 COMMON     2     2      0
                                             36 BANK0      8     4      4
                            ___flmul (ARG)
                           ___xxtofl (ARG)
 ---------------------------------------------------------------------------------
 (2) ___flsub                                              8     0      8    3025
                                             36 BANK0      8     0      8
                            ___fladd
                            ___flmul (ARG)
                           ___xxtofl (ARG)
 ---------------------------------------------------------------------------------
 (3) ___fladd                                             20    12      8    2954
                                              2 COMMON     4     4      0
                                              0 BANK0     16     8      8
 ---------------------------------------------------------------------------------
 (2) ___flmul                                             26    18      8    2452
                                             10 BANK0     26    18      8
                          __Umul8_16
                           ___xxtofl (ARG)
 ---------------------------------------------------------------------------------
 (3) __Umul8_16                                            9     7      2     232
                                              2 COMMON     4     2      2
                                              0 BANK0      5     5      0
 ---------------------------------------------------------------------------------
 (2) ___flge                                              12     4      8     272
                                             44 BANK0     12     4      8
                            ___flmul (ARG)
                            ___flsub (ARG)
                           ___xxtofl (ARG)
 ---------------------------------------------------------------------------------
 (2) ___bmul                                               3     2      1       6
                                              2 COMMON     3     2      1
 ---------------------------------------------------------------------------------
 (2) ___awmod                                              6     2      4     453
                                              2 COMMON     6     2      4
 ---------------------------------------------------------------------------------
 (2) ___awdiv                                              8     4      4      90
                                              2 COMMON     4     0      4
                                              0 BANK0      4     4      0
 ---------------------------------------------------------------------------------
 (1) _read_digital_keypad                                  2     2      0     130
                                              2 COMMON     1     1      0
 ---------------------------------------------------------------------------------
 (1) _power_on_screen                                      7     7      0     900
                                              5 BANK0      7     7      0
                         _clcd_print
                         _clcd_putch
 ---------------------------------------------------------------------------------
 (2) _clcd_putch                                           2     1      1     231
                                              8 COMMON     1     0      1
                                              4 BANK0      1     1      0
                            ___awdiv (ARG)
                            ___awmod (ARG)
                         _clcd_write
 ---------------------------------------------------------------------------------
 (2) _clcd_print                                           3     0      3     471
                                              0 BANK0      3     0      3
                            ___awmod (ARG)
                         _clcd_write
 ---------------------------------------------------------------------------------
 (1) _init_config                                          0     0      0     111
                          _init_clcd
                _init_digital_keypad
                        _init_timer2
 ---------------------------------------------------------------------------------
 (2) _init_timer2                                          0     0      0       0
 ---------------------------------------------------------------------------------
 (2) _init_digital_keypad                                  0     0      0       0
 ---------------------------------------------------------------------------------
 (2) _init_clcd                                            0     0      0     111
            _init_display_controller
 ---------------------------------------------------------------------------------
 (3) _init_display_controller                              2     2      0     111
                                              6 COMMON     2     2      0
                         _clcd_write
 ---------------------------------------------------------------------------------
 (3) _clcd_write                                           4     3      1     111
                                              2 COMMON     4     3      1
 ---------------------------------------------------------------------------------
 Estimated maximum stack depth 3
 ---------------------------------------------------------------------------------
 (Depth) Function   	        Calls       Base Space   Used Autos Params    Refs
 ---------------------------------------------------------------------------------
 (5) _isr                                                  2     2      0       0
                                              0 COMMON     2     2      0
 ---------------------------------------------------------------------------------
 Estimated maximum stack depth 5
 ---------------------------------------------------------------------------------

 Call Graph Graphs:

 _main (ROOT)
   _clcd_print
     ___awmod (ARG)
     _clcd_write (ARG)
   _clear_screen
     _clcd_write
   _init_config
     _init_clcd
       _init_display_controller
         _clcd_write
     _init_digital_keypad
     _init_timer2
   _power_on_screen
     _clcd_print
     _clcd_putch
       ___awdiv (ARG)
       ___awmod (ARG)
       _clcd_write (ARG)
   _read_digital_keypad
   _run_program
     ___awdiv
     ___awmod
     ___bmul
     ___flge
       ___flmul (ARG)
         __Umul8_16
         ___xxtofl (ARG)
       ___flsub (ARG)
         ___fladd
         ___flmul (ARG)
         ___xxtofl (ARG)
       ___xxtofl (ARG)
     ___flmul
     ___flsub
     ___fltol
       ___flmul (ARG)
       ___xxtofl (ARG)
     ___xxtofl
     _clcd_print
     _clcd_putch
     _clear_screen
     _door_status_check
       _clcd_print
       _clear_screen
   _set_time
   _washing_program_display
     _clcd_print
     _clcd_putch
     _clear_screen
   _water_level_screen
     ___awmod
     _clcd_print
     _clcd_putch
     _clear_screen

 _isr (ROOT)

Address spaces:
Name               Size   Autos  Total    Usage
BANK3               96      0       0      0.0%
BITBANK3            96      0       0      0.0%
BANK2               96      0       0      0.0%
BITBANK2            96      0       0      0.0%
BANK1               80      9      56     70.0%
BITBANK1            80      0       0      0.0%
BANK0               80     73      75     93.8%
BITBANK0            80      0       0      0.0%
COMMON              14      9      12     85.7%
BITCOMMON           14      0       0      0.0%
DATA                 0      0     141      0.0%
STACK                0      0       0      0.0%


Microchip Technology PIC Macro Assembler V3.00 build 20241204225717 
Symbol Table                                                                                   Tue Jul 01 17:15:26 2025

                              pc 0002                   ___bmul@product 0073                   clcd_print@addr 0022  
                             l43 07FC                               l65 0DA0                               l91 148C  
                             l59 0D64                               l94 162A                               l97 1414  
                   ___awdiv@sign 0021                               fsr 0004              __Umul8_16@word_mpld 0022  
                            l100 146C                              l113 0808                              l106 1532  
                            l212 07E2                              l141 1420                              l126 15D3  
                            l127 15D2                              l223 0AD4                              l305 0B6D  
                            l322 0BA3                              l315 0B8A                              l229 17FF  
                            l247 0420                              l352 0831                              l280 0B29  
                            l345 0BEB                              l610 1681                              l354 0837  
                            l282 0B29                              l355 0873                              l339 0BD5  
                            l348 0C25                              l470 1444                              l630 0917  
                            l622 0892                              l358 1431                              l286 0B3F  
                            l625 08FE                              l298 0B58                              l740 0DD4  
                            l645 1747                              l638 175C                              l751 0E5F  
                            l648 175C                              l841 0762                              l745 0E05  
                            l770 0F76                              l860 14ED                              l597 16E6  
                            l853 0758                              l749 0E86                              l862 14FF  
                            l766 0F52                              l758 0FFF                              l847 06D4  
                            l791 14B0                              l776 0F99                              l787 0FF5  
                            l779 0FD5                              l891 097B                              l788 0FFF  
                            l885 093C                              l886 094D                              l887 09CD  
                            l898 0997                              l899 09A3                              _GIE 005F  
                            _RB0 0030                              _RC1 0039                              _RC2 003A  
                            _RE1 0049                              _RE2 004A                              _PR2 0092  
                            _min 007A                              _sec 007B                              _isr 1533  
                 clcd_putch@addr 0078                              fsr0 0004                   clcd_putch@data 0024  
                            indf 0000                     ___awmod@sign 0077                     ___flmul@aexp 0038  
                   ___flmul@bexp 003D                     ___flmul@sign 0037                     ___flmul@temp 0042  
                   ___flmul@prod 003E                      _run_program 0033                     ___fltol@exp1 0077  
                           l3000 0DBC                             l3010 0DD6                             l3002 0DC1  
                           l3100 0EBB                             l3020 0DE7                             l3012 0DD8  
                           l3004 0DC9                             l3110 0ED2                             l3102 0EC2  
                           l3030 0DFB                             l3022 0DE8                             l3014 0DDE  
                           l3006 0DCA                             l3200 140A                             l3120 0F30  
                           l3104 0EC4                             l3112 0ED5                             l3040 0E13  
                           l3024 0DED                             l3032 0DFD                             l3016 0DDF  
                           l3008 0DCC            ??_read_digital_keypad 0072                             l3202 140D  
                           l3210 1415                             l3122 0F35                             l3114 0EED  
                           l3106 0EC8                             l3050 0E1D                             l3042 0E15  
                           l3034 0E0B                             l3026 0DF2                             l3018 0DE3  
                           l3204 140E                             l3212 145B                             l3300 1637  
                           l3140 0F7E                             l3132 0F68                             l3116 0F2B  
                           l3124 0F44                             l3108 0EC9                             l3060 0E27  
                           l3052 0E1F                             l3044 0E17                             l3036 0E0F  
                           l3028 0DFA                             l3220 0817                             l4100 0036  
                           l3206 140F                             l3310 1650                             l3302 163B  
                           l3150 0F8C                             l3142 0F80                             l3134 0F71  
                           l3126 0F5A                             l3118 0F2D                             l3070 0E30  
                           l3062 0E29                             l3054 0E21                             l3046 0E19  
                           l3038 0E11                             l3230 0859                             l3222 0824  
                           l3214 0809                             l4110 006A                             l4102 003B  
                           l3208 0803                             l3320 166D                             l3312 1652  
                           l3304 1640                             l3240 143A                             l3400 042F  
                           l3160 0FA3                             l3152 0F90                             l3144 0F85  
                           l3136 0F75                             l3128 0F5F                             l3080 0E74  
                           l3072 0E47                             l3064 0E2B                             l3056 0E23  
                           l3048 0E1B                             l3232 0866                             l3224 083A  
                           l3216 080F                             l4200 03EC                             l4120 00D0  
                           l4112 0077                             l4104 0043                             l3314 1656  
                           l3306 1646                             l3322 1673                             l3242 143C  
                           l3234 1433                             l3330 0874                             l3410 0444  
                           l3402 0430                             l3170 0FDF                             l3162 0FB1  
                           l3154 0F96                             l3138 0F7A                             l3146 0F87  
                           l3090 0E8F                             l3082 0E75                             l3074 0E63  
                           l3066 0E2D                             l3058 0E25                             l3226 083F  
                           l3218 0812                             l4210 0419                             l4202 03F7  
                           l4130 010F                             l4122 00EB                             l4114 0092  
                           l4106 0048                             l4060 1689                             l3324 1678  
                           l3316 1660                             l3308 1649                             l3244 1443  
                           l3236 1434                             l3340 08D6                             l3332 088A  
                           l3420 0458                             l3412 044C                             l3404 0435  
                           l3180 0FF3                             l3172 0FE7                             l3164 0FB5  
                           l3148 0F8B                             l3084 0E7E                             l3076 0E6C  
                           l3068 0E2F                             l3228 084C                             l4212 041B  
                           l4204 0404                             l4140 0184                             l4132 011C  
                           l4124 00EF                             l4116 00AD                             l4108 0055  
                           l4220 0C45                             l4070 169B                             l4062 168E  
                           l3326 167D                             l3318 1666                             l3238 1438  
                           l3342 08DA                             l3334 08A6                             l3190 14E3  
                           l3510 0709                             l3502 06D9                             l3430 0474  
                           l3422 045D                             l3414 044F                             l3406 043A  
                           l3182 0FFA                             l3174 0FEC                             l3166 0FD3  
                           l3158 0F9E                             l3094 0E9A                             l3078 0E6E  
                           l3086 0E80                             l3350 16E7                             l4206 0412  
                           l4150 0211                             l4142 01C5                             l4134 0129  
                           l4126 00FD                             l4118 00B5                             l4230 0CAB  
                           l4222 0C53                             l4214 0C26                             l3600 1591  
                           l4080 16AF                             l4072 169D                             l4064 1690  
                           l4056 1682                             l3344 0914                             l3336 08AE  
                           l3192 14E7                             l3520 0740                             l3504 06DE  
                           l3512 070F                             l3440 0495                             l3432 0479  
                           l3424 0462                             l3416 0453                             l3408 0442  
                           l3184 0FFE                             l3176 0FED                             l3168 0FDA  
                           l3096 0EB3                             l3088 0E8A                             l3360 170F  
                           l3352 16F2                             l4208 0415                             l4160 0254  
                           l4152 0217                             l4144 0206                             l4136 0136  
                           l4128 0102                             l4240 0D07                             l4232 0CB0  
                           l4224 0C5D                             l4216 0C2B                             l3610 15A5  
                           l3602 1593                             l4090 16D2                             l4082 16B3  
                           l4074 16A3                             l4066 1694                             l4058 1685  
                           l3346 0916                             l3338 08B2                             l3194 14F6  
                           l3186 14DA                             l3530 075A                             l3522 0742  
                           l3514 071C                             l3506 06EC                             l3450 051F  
                           l3442 04A2                             l3434 047E                             l3426 046A  
                           l3418 0457                             l3178 0FF1                             l3098 0EB7  
                           l3362 1717                             l4170 032C                             l4162 027C  
                           l4154 0221                             l4146 0209                             l4138 0143  
                           l4250 0D1F                             l4242 0D0C                             l4234 0CB9  
                           l4226 0C9B                             l4218 0C38                             l3620 15BA  
                           l3612 15AB                             l3604 1596                             l4084 16C4  
                           l4076 16A6                             l4092 16D8                             l4068 1699  
                           l3292 162B                             l3196 14FB                             l3188 14DC  
                           l3524 074E                             l3516 0727                             l3508 06F0  
                           l3460 057D                             l3452 053B                             l3444 04BD  
                           l3428 046C                             l3380 173C                             l3372 1725  
                           l3364 1719                             l3356 16FB                             l3540 0934  
                           l4172 033A                             l4164 028A                             l4180 0365  
                           l4156 0229                             l4148 020A                             l4252 0D24  
                           l4260 0D51                             l4244 0D11                             l4236 0CC1  
                           l4228 0CA6                             l3630 15D0                             l3622 15BD  
                           l3606 159C                             l4094 16DD                             l4086 16CA  
                           l4078 16AD                             l3294 162C                             l3526 0752  
                           l3518 0736                             l3470 0607                             l3462 059A  
                           l3454 0544                             l3446 04D9                             l3438 0487  
                           l3382 174C                             l3366 171D                             l3374 1735  
                           l3358 170E                             l3550 0962                             l3542 0944  
                           l3534 091B                             l4190 03D9                             l4182 0380  
                           l4174 0348                             l4158 0246                             l4166 0298  
                           l3702 0AFF                             l4270 0D73                             l4262 0D57  
                           l4254 0D31                             l4246 0D17                             l4238 0CFF  
                           l3624 15C2                             l3608 15A3                             l3616 15AD  
                           l4096 16E2                             l4088 16CB                             l3296 1630  
                           l3528 0753                             l3480 0697                             l3472 0632  
                           l3464 05B1                             l3456 0552                             l3448 0503  
                           l3392 0421                             l3384 1751                             l3560 0991  
                           l3552 0964                             l3536 0920                             l4192 03DE  
                           l4184 039B                             l4176 034E                             l4168 029E  
                           l3712 0B14                             l3704 0B10                             l4280 0D89  
                           l4272 0D79                             l4264 0D5D                             l4256 0D3E  
                           l4248 0D1D                             l3650 0786                             l3626 15C8  
                           l3618 15B4                             l3634 15D2                             l3298 1635  
                           l3482 06A0                             l3490 06B4                             l3474 0658  
                           l3466 05CE                             l3458 056F                             l3394 0425  
                           l3386 148D                             l3570 09C4                             l3562 099B  
                           l3554 0972                             l3546 0950                             l3538 0924  
                           l4194 03E3                             l4186 03A3                             l4178 035A  
                           l3730 0B56                             l3722 0B2E                             l3714 0B15  
                           l3706 0B11                             l3810 0BFD                             l4266 0D65  
                           l4258 0D4B                             l3580 07F2                             l3660 07AB  
                           l3652 078F                             l3644 0767                             l3628 15CE  
                           l3492 06B8                             l3484 06A4                             l3476 0680  
                           l3468 05F9                             l3396 0427                             l3388 1491  
                           l3572 09C5                             l3564 09A5                             l3556 0982  
                           l3548 095B                             l4196 03E8                             l4188 03BE  
                           l3740 0B6E                             l3732 0B59                             l3820 09EA  
                           l3812 09D1                             l4276 0D7E                             l4268 0D6C  
                           l4284 0D90                             l2950 1478                             l3590 07FB  
                           l3582 07F3                             l3662 07B4                             l3654 07A7  
                           l3646 0770                             l3638 0763                             l3494 06B9  
                           l3486 06A5                             l3478 0689                             l3398 042B  
                           l3566 09BB                             l3558 098D                             l4198 03EB  
                           l3806 0BEC                             l3750 0B86                             l3726 0B44  
                           l3718 0B18                             l3670 0AD5                             l3830 0A05  
                           l3822 09EF                             l3814 09D9                             l4278 0D84  
                           l2952 147A                             l3584 07F4                             l3576 07E3  
                           l2960 151A                             l3664 07C2                             l3648 077E  
                           l3592 157E                             l3496 06BD                             l3488 06AE  
                           l3568 09C0                             l3760 0B9F                             l3752 0B87  
                           l3744 0B71                             l3736 0B5C                             l3728 0B55  
                           l3680 0ADE                             l3672 0AD6                             l3840 0A95  
                           l3832 0A0D                             l3824 09F3                             l3816 09DE  
                           l2954 1480                             l2970 15DC                             l3586 07F7  
                           l3578 07ED                             l2962 1522                             l3666 07CA  
                           l3594 1582                             l3498 06D1                             l3770 0BA7  
                           l3762 0BA0                             l3754 0B8C                             l3746 0B82  
                           l3738 0B6D                             l3690 0AF4                             l3682 0ADF  
                           l3674 0AD7                             l3842 0A9B                             l3834 0A15  
                           l3826 09F9                             l3818 09E2                             l3850 1771  
                           l2948 146E                             l2980 1602                             l2972 15E3  
                           l3588 07F8                             l2956 1500                             l3668 07D3  
                           l3596 1584                             l2964 1421                             l3780 0BBC  
                           l3772 0BB8                             l3764 0BA3                             l3748 0B83  
                           l3692 0AF7                             l3676 0ADA                             l3836 0A53  
                           l3828 09FA                             l3852 1779                             l3860 1789  
                           l3844 1760                             l2982 1609                             l2974 15F3  
                           l2958 150A                             l3598 158A                             l2990 0DAC  
                           l2966 1428                             l3782 0BBD                             l3774 0BB9  
                           l3766 0BA4                             l3758 0B8E                             l3694 0AF8  
                           l3686 0AE2                             l3678 0ADB                             l3838 0A59  
                           l3862 1794                             l3854 177E                             l3846 1768  
                           l2984 1615                             l2976 15F8                             l2968 15D4  
                           l2992 0DAE                             l3792 0BD1                             l3696 0AFB  
                           l3688 0AF3                             l3864 179C                             l3856 1782  
                           l3848 176D                             l2986 161E                             l2978 15FF  
                           l2994 0DB2                             l3794 0BD2                             l3786 0BC0  
                           l3698 0AFC                             l3866 17B1                             l3858 1788  
                           l2996 0DB6                             l2988 0DA8                             l3868 17D8  
                           l2998 0DB7                             l3798 0BDA                             ?_isr 0070  
                           STR_1 104F                             STR_2 1116                             STR_3 1021  
                           STR_4 1077                             STR_5 1090                             STR_6 10FA  
                           STR_7 1147                             STR_8 114D                             STR_9 1104  
                           u4000 0FDA                             u4001 0FD9                             u4010 0FDF  
                           u4011 0FDE                             u4100 1438                             u4020 0FEC  
                           u4101 1437                             u4021 0FEB                             u4110 1443  
                           u4030 0FF1                             u4111 1442                             u4031 0FF0  
                           u5000 1591                             u4040 0FFE                             u5001 1590  
                           u4041 0FFD                             u5010 159C                             u4050 14E7  
                           u5011 159B                             u4051 14E6                             u5100 07D3  
                           u5020 15A3                             u4300 1678                             u4220 1630  
                           u5101 07D2                             u5021 15A2                             u4301 1677  
                           u4221 162F                             u5030 15AB                             u4230 163B  
                           u4310 088A                             u4070 14FB                             u5110 09D9  
                           u5031 15AA                             u4231 163A                             u4311 0889  
                           u4071 14FA                             u5111 09D8                             u5040 15B4  
                           u4240 1646                             u4320 08A6                             u3600 0DBC  
                           u4400 171D                             u4080 080F                             u5120 09EA  
                           u5041 15B3                             u4241 1645                             u4321 08A5  
                           u4065 14EE                             u3601 0DBB                             u4401 171C  
                           u4081 080E                             u5121 09E9                             u5050 15BA  
                           u4330 08B2                             u3610 0DC1                             u4410 1724  
                           u4090 0837                             u5130 09F9                             u5051 15B9  
                           u4331 08B1                             u3611 0DC0                             u4411 1723  
                           u4091 0836                             u5131 09F8                             u5060 15C2  
                           u4260 1656                             u4500 043A                             u3700 0E53  
                           u3620 0DDE                             u5140 0A15                             u5061 15C1  
                           u4261 1655                             u4341 08C1                             u4501 0439  
                           u3621 0DDD                             u5141 0A14                             u5070 15C8  
                           u4270 1660                             u4350 08DA                             u4342 08C2  
                           u4510 0457                             u3710 0E63                             u3630 0DE7  
                           u4430 1734                             u5150 0A59                             u5071 15C7  
                           u4271 165F                             u4255 164A                             u4351 08D9  
                           u4343 08C7                             u4511 0456                             u3711 0E62  
                           u3631 0DE6                             u4431 1733                             u5151 0A58  
                           u3560 1475                             u5080 15CE                             u4344 08C8  
                           u4520 045D                             u3800 0EC8                             u3720 0E74  
                           u3640 0DED                             u4440 173B                             u5160 0A9B  
                           u3561 1471                             u5081 15CD                             u4361 08E9  
                           u4345 08CD                             u4521 045C                             u3801 0EC7  
                           u3721 0E73                             u3641 0DEC                             u4441 173A  
                           u4425 1726                             u5161 0A9A                             u5090 078F  
                           u4290 1673                             u4370 0914                             u4362 08EA  
                           u4346 08CE                             u4530 0462                             u3650 0DF2  
                           u5170 1768                             u5091 078E                             u4291 1672  
                           u4275 165C                             u4371 0913                             u4363 08EF  
                           u4611 0561                             u4531 0461                             u3651 0DF1  
                           u5171 1767                             _PEIE 005E                             u3580 1532  
                           u4364 08F0                             u4612 0568                             u4540 0479  
                           u3900 0F7A                             u3820 0EED                             u3740 0E86  
                           u3660 0E0B                             u4460 174C                             u4380 16F2  
                           u5180 1779                             u3581 1531                             u4285 1667  
                           u4365 08F5                             u4701 0672                             u4621 058C  
                           u4613 056F                             u4605 053D                             u4541 0478  
                           u3901 0F79                             u3821 0EEC                             u3741 0E85  
                           u3661 0E0A                             u4461 174B                             u4381 16F1  
                           u5181 1778                             u3574 1478                             u5510 16D8  
                           u5430 1689                             u4366 08F6                             u4702 0679  
                           u4622 0593                             u4550 047E                             u3910 0F85  
                           u3750 0E8A                             u3670 0E0F                             u3590 0DB6  
                           u4470 1751                             u4390 1709                             u5190 1788  
                           u5511 16D7                             u5431 1688                             u4375 0910  
                           u4703 0680                             u4623 059A                             u4551 047D  
                           u3911 0F84                             u3831 0F04                             u3823 0EE9  
                           u3815 0ECB                             u3751 0E89                             u3735 0E77  
                           u3671 0E0E                             u3591 0DB5                             u4471 1750  
                           u4455 173E                             u5191 1787                             u5520 16DD  
                           u5440 1694                             u4800 06F0                             u4480 042F  
                           u3920 0F8B                             u3840 0F18                             u3832 0F05  
                           u3760 0E8F                             u3680 0E47                             u5600 034E  
                           u5521 16DC                             u5505 16CC                             u5441 1693  
                           u4801 06EF                             u4641 05C0                             u4561 04CB  
                           u4481 042E                             u3921 0F8A                             u3841 0F19  
                           u3833 0F0A                             u3761 0E8E                             u3681 0E46  
                           u5601 034D                             u5450 16A3                             u4810 06FF  
                           u4730 06A4                             u4642 05C7                             u4562 04D2  
                           u4490 0435                             u3930 0F90                             u3850 0F35  
                           u3842 0F1E                             u3834 0F0B                             u3690 0E52  
                           u5610 03DE                             u5530 0043                             u5451 16A2  
                           u4731 06A3                             u4715 0682                             u4651 05EB  
                           u4643 05CE                             u4635 059C                             u4571 04E7  
                           u4563 04D9                             u4491 0434                             u3931 0F8F  
                           u3851 0F34                             u3843 0F1F                             u3835 0F10  
                           u3771 0EA5                             u3691 0E50                             u4395 1704  
                           u5611 03DD                             u5531 0042                             u4820 071C  
                           u4652 05F2                             u4572 04EE                             u3940 0F96  
                           u3860 0F5A                             u3836 0F11                             u3780 0EB7  
                           u3772 0EAC                             u5620 03E3                             u5540 0211  
                           u5700 0D17                             u4821 071B                             u4725 0699  
                           u4661 0616                             u4653 05F9                             u4581 0511  
                           u4573 04F5                             u3941 0F95                             u3861 0F59  
                           u3781 0EB6                             u3773 0EB3                             u3685 0E43  
                           u5621 03E2                             u5541 0210                             u5701 0D16  
                           u5470 16B3                             u4830 0736                             u4750 06B8  
                           u4670 063E                             u4662 061D                             u4582 0518  
                           u3950 0F9D                             u3870 0F5F                             u3790 0EBB  
                           u4910 0981                             u5550 0229                             u5710 0D1D  
                           u5630 0C89                             u5471 16B2                             u4831 0735  
                           u4815 06FA                             u4751 06B7                             u4663 0624  
                           u4591 052D                             u4583 051F                             u3951 0F9C  
                           u3871 0F5E                             u3791 0EBA                             u4911 0980  
                           u5551 0228                             u5711 0D1C                             u4840 0752  
                           u4760 06BD                             u4592 0534                             u3960 0FA3  
                           u5560 0246                             u5720 0D57                             u5640 0C9B  
                           u5465 16A7                             u4841 0751                             u4825 0718  
                           u4761 06BC                             u4745 06A7                             u4681 064A  
                           u4593 053B                             u3961 0FA2                             u4905 0973  
                           u5561 0245                             u5721 0D56                             u5641 0C9A  
                           u5490 16C4                             u4770 06D1                             u4690 0666  
                           u4682 0651                             u3970 0FB5                             u3890 0F75  
                           u4930 0991                             u4850 0920                             u5570 027C  
                           u5730 0D5D                             u5650 0CA6                             u5491 16C3  
                           u4835 0732                             u4771 06D0                             u4683 0658  
                           u4675 0639                             u3971 0FB4                             u3891 0F74  
                           u4931 0990                             u4851 091F                             u5571 027B  
                           u5731 0D5C                             u5651 0CA5                             u5635 0C72  
                           u4780 06D8                             u3980 0FC4                             u4940 0997  
                           u4860 0924                             u5580 029E                             u5740 0D79  
                           u5660 0CED                             u5636 0C75                             u5485 16B4  
                           u4781 06D7                             u3885 0F6A                             u4941 0996  
                           u4925 0986                             u4861 0923                             u5581 029D  
                           u5565 0242                             u5741 0D78                             u5637 0C7C  
                           u4790 06DE                             u3990 0FD3                             u4950 099B  
                           u4870 0944                             u5590 032C                             u5750 0D84  
                           u5670 0CFF                             u5638 0C7F                             u5807 07BC  
                           u5495 16C0                             u4791 06DD                             u4695 0661  
                           u3991 0FD2                             u4951 099A                             u4871 0943  
                           u5591 032B                             u5575 0278                             u5751 0D83  
                           u5671 0CFE                             u5639 0C86                             u4960 09B0  
                           u5680 0D07                             u5817 07DB                             u3985 0FBF  
                           u5681 0D06                             u5665 0CD6                             u4970 09C0  
                           u4890 0961                             u5690 0D0C                             u5666 0CD9  
                           u5827 15D8                             u4971 09BF                             u4891 0960  
                           u5691 0D0B                             u5667 0CE0                             u4980 09C4  
                           u5668 0CE3                             u5837 15E7                             u4981 09C3  
                           u4965 09AB                             u4885 0953                             u5669 0CEA  
                           u4990 158A                             u5847 15F5                             u4991 1589  
                           u5767 00F7                             u5857 160B                             u5777 040C  
                           u5867 1619                             u5787 142C                             u5877 1627  
                           u5797 0778                             u5887 147D                             u5897 1487  
  read_digital_keypad@long_press 00C2                             _main 0C26                             _time 00CA  
                           btemp 007E                             start 000C                ___bmul@multiplier 0074  
                 clcd_write@byte 0075                   clcd_write@mode 0072                     main@delay_93 00D3  
        __end_of_power_on_screen 07E3        ??_washing_program_display 0025                            ??_isr 0070  
                  ___fltol@sign1 0076                  __end_of___fladd 1000                            ?_main 0070  
                __end_of___awdiv 16E7                            STR_10 112E                            STR_11 10B2  
                          STR_20 1167                            STR_12 10BD                            STR_21 1127  
                          STR_13 111F                            STR_30 10C8                            STR_22 1158  
                          STR_14 10E6                            STR_31 1153                            STR_23 116B  
                          STR_15 10A7                            STR_40 10B8                            STR_32 109C  
                          STR_24 1084                            STR_16 10DC                            STR_25 1021  
                          STR_33 10D2                            STR_41 1000                            STR_17 10F0  
                          STR_34 10B8                            STR_42 1040                            STR_26 1011  
                          STR_18 110D                            STR_35 1141                            STR_43 106A  
                          STR_27 105D                            STR_19 1162                            STR_36 115D  
                          STR_28 113B                            STR_44 1031                  __end_of___awmod 1682  
                          STR_45 10C8                            STR_37 1141                            STR_29 1135  
                          STR_46 1153                            STR_38 115D                            STR_47 109C  
                          STR_39 115D                            STR_48 10D2                  __end_of___flmul 0763  
                __end_of___flsub 14B1                  __end_of___fltol 175D                  ___awdiv@divisor 0072  
                          i1l159 1577                     ?_init_config 0070                  ___awdiv@counter 0020  
                          _PORTB 0006                            _PORTD 0008                            _TRISB 0086  
                          _TRISD 0088                     ?_init_timer2 0070             __end_of_clear_screen 1432  
                          _level 0069                            pclath 000A                            status 0003  
                          wtemp0 007E                  __initialization 000F                     __end_of_main 0DA8  
                         ??_main 0065                   run_program@key 0064  __end_of_washing_program_display 0AD5  
               ___awdiv@dividend 0074                           i1l2930 1539                           i1l2940 1566  
                         i1l2932 1554                           i1l2942 1568                           i1l2934 1559  
                         i1l2944 156A                           i1l2936 155C                           i1l2928 1533  
                         i1l2938 1561                           i1l2946 1574                           u351_20 1539  
                         u351_21 1538                           u352_20 1554                           u352_21 1553  
                         u353_20 1559                           u353_21 1558                           u354_20 1561  
                         u354_21 1560                           u355_20 1566                           u355_21 1565  
                         _TMR2IE 0461                           _TMR2IF 0061                           _TMR2ON 0092  
                         _TRISC1 0439                           _TRISC2 043A                           _TRISE1 0449  
                         _TRISE2 044A                 __end_of___xxtofl 09CE      __end_of_init_digital_keypad 0809  
                         ___flge 0874                           ___bmul 1432          _init_display_controller 15D4  
                      ??___fladd 0028                        ??___awdiv 0076                 ?_power_on_screen 0070  
                      ??___awmod 0076                        ??___flmul 0032                        ??___flsub 0076  
                      ??___fltol 0048                 ___awdiv@quotient 0022                  ___awmod@divisor 0072  
                ___awmod@counter 0076                 __end_of_set_time 0C26                           saved_w 007E  
                     ___flge@ff1 004C                       ___flge@ff2 0050                     ___xxtofl@arg 0026  
                   ___xxtofl@exp 0025                     ___xxtofl@val 0072          __end_of__initialization 002F  
                     ___fltol@f1 0044              ___bmul@multiplicand 0072                   __pcstackCOMMON 0070  
                   __pidataBANK1 14B1                     ?_run_program 0070                       __pbssBANK0 0069  
                     __pbssBANK1 00C6        ??_init_display_controller 0076                       _clcd_print 1500  
                     _clcd_putch 1458                       _clcd_write 146D                __end_of__Umul8_16 1500  
                     __pmaintext 0C26                     _clear_screen 1421                          ?___flge 004C  
                        ?___bmul 0072                       __pintentry 0004      __end_of_read_digital_keypad 15D4  
                      ?___xxtofl 0072                       __stringtab 116F                        ?_set_time 0070  
                        ___fladd 0DA8                          ___awdiv 1682                          ___awmod 162B  
                        ___flmul 0421                          ___flsub 148D                          ___fltol 16E7  
                        __ptext1 175D                          __ptext2 09CE                          __ptext3 0AD5  
                        __ptext4 0033                          __ptext5 0809                          __ptext6 1421  
                        __ptext7 0918                          __ptext8 16E7                          __ptext9 148D  
__end_of_init_display_controller 162B                __end_of_init_clcd 1415           read_digital_keypad@key 0072  
                     ??___xxtofl 0020                 ___awmod@dividend 0074                          main@key 00D7  
           end_of_initialization 002F                      ?_clcd_print 0020                      ?_clcd_putch 0078  
                    ?_clcd_write 0072         ?_washing_program_display 0070                       _reset_flag 00C4  
                     ??_set_time 0072                     __pstringtext 1000                       _rinse_time 00CC  
                    ___fladd@grs 0075       washing_program_display@key 0027                       _program_no 006A  
                  ___xxtofl@sign 0024                    clcd_print@str 0020                      ___flmul@grs 0039  
                     _total_time 0079                   __end_of___flge 0918                   __end_of___bmul 1445  
            start_initialization 000F                      __end_of_isr 157E            water_level_screen@key 0027  
                       ??___flge 0054                         ??___bmul 0073                       init_fetch0 1445  
                      __Umul8_16 14D7       __end_of_water_level_screen 1800                      __pdataBANK1 00A0  
     read_digital_keypad@pre_key 00CE                    ??_init_config 0078                        ___fladd@a 0024  
                      ___fladd@b 0020                    ??_init_timer2 0072                        ___flmul@a 002E  
                      ___flmul@b 002A                      __pbssCOMMON 0079                        ___flsub@a 0044  
                      ___flsub@b 0048                        ___latbits 0002                    __pcstackBANK0 0020  
                  __pcstackBANK1 00CF             power_on_screen@i_194 002A                         ?___fladd 0020  
                       ?___awdiv 0072                         ?___awmod 0072                         ?___flmul 002A  
                       ?___flsub 0044                         ?___fltol 0044                       ?__Umul8_16 0072  
                      __pstrings 116F                        _init_clcd 140A              __end_of_init_config 07FD  
              ??_power_on_screen 0025              __end_of_init_timer2 1421                  _washing_program 00A0  
       ?_init_display_controller 0070                interrupt_function 0004                     ??_clcd_print 0078  
                   ??_clcd_putch 0079                     ??_clcd_write 0073                        _wash_time 00CD  
                      _spin_time 00CB                      __stringbase 1181                        main@delay 00CF  
             __end_of_clcd_print 1533               __end_of_clcd_putch 146D               __end_of_clcd_write 148D  
                     ?_init_clcd 0070              _init_digital_keypad 0803                      ??__Umul8_16 0074  
           ?_init_digital_keypad 0070               __end_of__stringtab 1181                      _init_config 07E3  
                       ___xxtofl 0918                 _operational_mode 00C5                      _init_timer2 1415  
                  ??_run_program 0058                         __ptext10 0DA8                         __ptext11 0421  
                       __ptext20 1500                         __ptext12 14D7                         __ptext21 07E3  
                       __ptext13 0874                         __ptext22 1415                         __ptext14 1432  
                       __ptext23 0803                         __ptext15 162B                         __ptext24 140A  
                       __ptext16 1682                         __ptext25 15D4                         __ptext17 157E  
                       __ptext26 146D                         __ptext18 0763                         __ptext27 1533  
                       __ptext19 1458          read_digital_keypad@mode 0070          read_digital_keypad@once 00C3  
                  ?_clear_screen 0070                         _set_time 0AD5            ??_init_digital_keypad 0072  
              _door_status_check 0809               ?_door_status_check 0070                         isr@count 00C6  
            ??_door_status_check 0078                         init_ram0 1449               _water_level_screen 175D  
                    ??_init_clcd 0078                         intlevel1 0000              ?_water_level_screen 0070  
            __end_of_run_program 0421                        stringcode 1179                   ??_clear_screen 0076  
      __end_of_door_status_check 0874              _read_digital_keypad 157E             ??_water_level_screen 0025  
        _washing_program_display 09CE           __Umul8_16@multiplicand 0072                  _power_on_screen 0763  
                       stringtab 116F                    ___fladd@signs 0072             ?_read_digital_keypad 0070  
               power_on_screen@i 0028                      _water_level 00B8                     ___fladd@aexp 0073  
                   ___fladd@bexp 0074             __Umul8_16@multiplier 0024                __Umul8_16@product 0020  
